(dp1
S'nome_do_funcionario'
p2
(dp3
S'type'
p4
S'string'
p5
sS'sortable'
p6
I3
sS'sql'
p7
S'CHAR(512)'
p8
ssS'id'
p9
(dp10
g4
S'id'
p11
sg6
I1
sg7
S'INTEGER PRIMARY KEY AUTOINCREMENT'
p12
ssS'empresa'
p13
(dp14
g4
S'reference empresas'
p15
sg6
I2
sg7
S'INTEGER REFERENCES empresas (id) ON DELETE CASCADE'
p16
ssS'email'
p17
(dp18
g4
g5
sg6
I4
sg7
S'CHAR(512)'
p19
ss.