(dp1
S'output'
p2
S'<class \'sqlite3.OperationalError\'> near ")": syntax error'
p3
sS'layer'
p4
S'/Users/logan/Documents/web2py/applications/exemplo_validators/controllers/funcionarios.py'
p5
sS'code'
p6
S'# coding: utf8\n# try something like\ndef index():\n    response.view = \'funcionario/novo.html\' \n    return dict()\n    \ndef novo():\n    empresa = db.empresas._filter_fields(request.post_vars)\n    funcionario = db.funcionarios._filter_fields(request.post_vars)\n    empresa_has_errors  = db.empresas._validate(**empresa)\n    funcionario_has_errors = db.funcionarios._validate(**funcionario)\n    if not empresa_has_errors and not funcionario_has_errors:\n        id_empresa = db.empresas.insert(**empresa)\n        funcionario["empresa"] = id_empresa\n        db.funcionarios.insert(**funcionario)\n        response.flash = \'dados salvos com sucesso!\'\n    else:\n        response.flash = \'ops, por favor verifique seus dados!\'\n    redirect(URL(\'funcionarios\',\'novo\'))\n\nresponse._vars=response._caller(novo)\n'
p7
sS'snapshot'
p8
(dp9
S'exception'
p10
(dp11
S'__module__'
p12
S"'sqlite3'"
p13
sS'__getslice__'
p14
S"<method-wrapper '__getslice__' of OperationalError object>"
p15
sS'__str__'
p16
S"<method-wrapper '__str__' of OperationalError object>"
p17
sS'__reduce__'
p18
S'<built-in method __reduce__ of OperationalError object>'
p19
sS'__dict__'
p20
S'{}'
p21
sS'__sizeof__'
p22
S'<built-in method __sizeof__ of OperationalError object>'
p23
sS'__weakref__'
p24
S'None'
p25
sS'__init__'
p26
S"<method-wrapper '__init__' of OperationalError object>"
p27
sS'__setattr__'
p28
S"<method-wrapper '__setattr__' of OperationalError object>"
p29
sS'__reduce_ex__'
p30
S'<built-in method __reduce_ex__ of OperationalError object>'
p31
sS'__new__'
p32
S'<built-in method __new__ of type object>'
p33
sS'__format__'
p34
S'<built-in method __format__ of OperationalError object>'
p35
sS'__class__'
p36
S"<class 'sqlite3.OperationalError'>"
p37
sS'__doc__'
p38
S'None'
p39
sS'__getitem__'
p40
S"<method-wrapper '__getitem__' of OperationalError object>"
p41
sS'__setstate__'
p42
S'<built-in method __setstate__ of OperationalError object>'
p43
sS'__getattribute__'
p44
S"<method-wrapper '__getattribute__' of OperationalError object>"
p45
sS'args'
p46
S'(\'near ")": syntax error\',)'
p47
sS'__subclasshook__'
p48
S'<built-in method __subclasshook__ of type object>'
p49
sS'__unicode__'
p50
S'<built-in method __unicode__ of OperationalError object>'
p51
sS'__delattr__'
p52
S"<method-wrapper '__delattr__' of OperationalError object>"
p53
sS'__repr__'
p54
S"<method-wrapper '__repr__' of OperationalError object>"
p55
sS'__hash__'
p56
S"<method-wrapper '__hash__' of OperationalError object>"
p57
ssS'evalue'
p58
S'near ")": syntax error'
p59
sS'request'
p60
ccopy_reg
_reconstructor
p61
(cgluon.html
BEAUTIFY
p62
c__builtin__
object
p63
NtRp64
(dp65
S'attributes'
p66
(dp67
sS'components'
p68
(lp69
g61
(cgluon.html
TABLE
p70
g63
NtRp71
(dp72
g66
(dp73
S'level'
p74
I5
ssS'parent'
p75
Nsg68
(lp76
g61
(cgluon.html
TR
p77
g63
NtRp78
(dp79
g66
(dp80
sg75
g71
sg68
(lp81
g61
(cgluon.html
TD
p82
g63
NtRp83
(dp84
g66
(dp85
S'_style'
p86
S'font-weight:bold;vertical-align:top'
p87
ssg75
g78
sg68
(lp88
S'ajax'
p89
asbag61
(g82
g63
NtRp90
(dp91
g66
(dp92
S'_valign'
p93
S'top'
p94
ssg75
g78
sg68
(lp95
S':'
asbag61
(g82
g63
NtRp96
(dp97
g66
(dp98
sg75
g78
sg68
(lp99
g61
(g62
g63
NtRp100
(dp101
g66
(dp102
g74
I5
ssg75
g96
sg68
(lp103
S'False'
p104
asbasbasbag61
(g77
g63
NtRp105
(dp106
g66
(dp107
sg75
g71
sg68
(lp108
g61
(g82
g63
NtRp109
(dp110
g66
(dp111
g86
g87
ssg75
g105
sg68
(lp112
S'application'
p113
asbag61
(g82
g63
NtRp114
(dp115
g66
(dp116
g93
g94
ssg75
g105
sg68
(lp117
S':'
asbag61
(g82
g63
NtRp118
(dp119
g66
(dp120
sg75
g105
sg68
(lp121
g61
(g62
g63
NtRp122
(dp123
g66
(dp124
g74
I5
ssg75
g118
sg68
(lp125
S'exemplo_validators'
p126
asbasbasbag61
(g77
g63
NtRp127
(dp128
g66
(dp129
sg75
g71
sg68
(lp130
g61
(g82
g63
NtRp131
(dp132
g66
(dp133
g86
g87
ssg75
g127
sg68
(lp134
g46
asbag61
(g82
g63
NtRp135
(dp136
g66
(dp137
g93
g94
ssg75
g127
sg68
(lp138
S':'
asbag61
(g82
g63
NtRp139
(dp140
g66
(dp141
sg75
g127
sg68
(lp142
g61
(g62
g63
NtRp143
(dp144
g66
(dp145
g74
I5
ssg75
g139
sg68
(lp146
g61
(g70
g63
NtRp147
(dp148
g66
(dp149
g74
I4
ssg75
Nsg68
(lp150
sbasbasbasbag61
(g77
g63
NtRp151
(dp152
g66
(dp153
sg75
g71
sg68
(lp154
g61
(g82
g63
NtRp155
(dp156
g66
(dp157
g86
g87
ssg75
g151
sg68
(lp158
S'body'
p159
asbag61
(g82
g63
NtRp160
(dp161
g66
(dp162
g93
g94
ssg75
g151
sg68
(lp163
S':'
asbag61
(g82
g63
NtRp164
(dp165
g66
(dp166
sg75
g151
sg68
(lp167
g61
(g62
g63
NtRp168
(dp169
g66
(dp170
g74
I5
ssg75
g164
sg68
(lp171
S'<cStringIO.StringO object at 0x107a5f880>'
p172
asbasbasbag61
(g77
g63
NtRp173
(dp174
g66
(dp175
sg75
g71
sg68
(lp176
g61
(g82
g63
NtRp177
(dp178
g66
(dp179
g86
g87
ssg75
g173
sg68
(lp180
S'cid'
p181
asbag61
(g82
g63
NtRp182
(dp183
g66
(dp184
g93
g94
ssg75
g173
sg68
(lp185
S':'
asbag61
(g82
g63
NtRp186
(dp187
g66
(dp188
sg75
g173
sg68
(lp189
g61
(g62
g63
NtRp190
(dp191
g66
(dp192
g74
I5
ssg75
g186
sg68
(lp193
S'None'
p194
asbasbasbag61
(g77
g63
NtRp195
(dp196
g66
(dp197
sg75
g71
sg68
(lp198
g61
(g82
g63
NtRp199
(dp200
g66
(dp201
g86
g87
ssg75
g195
sg68
(lp202
S'client'
p203
asbag61
(g82
g63
NtRp204
(dp205
g66
(dp206
g93
g94
ssg75
g195
sg68
(lp207
S':'
asbag61
(g82
g63
NtRp208
(dp209
g66
(dp210
sg75
g195
sg68
(lp211
g61
(g62
g63
NtRp212
(dp213
g66
(dp214
g74
I5
ssg75
g208
sg68
(lp215
S'127.0.0.1'
p216
asbasbasbag61
(g77
g63
NtRp217
(dp218
g66
(dp219
sg75
g71
sg68
(lp220
g61
(g82
g63
NtRp221
(dp222
g66
(dp223
g86
g87
ssg75
g217
sg68
(lp224
S'controller'
p225
asbag61
(g82
g63
NtRp226
(dp227
g66
(dp228
g93
g94
ssg75
g217
sg68
(lp229
S':'
asbag61
(g82
g63
NtRp230
(dp231
g66
(dp232
sg75
g217
sg68
(lp233
g61
(g62
g63
NtRp234
(dp235
g66
(dp236
g74
I5
ssg75
g230
sg68
(lp237
S'funcionarios'
p238
asbasbasbag61
(g77
g63
NtRp239
(dp240
g66
(dp241
sg75
g71
sg68
(lp242
g61
(g82
g63
NtRp243
(dp244
g66
(dp245
g86
g87
ssg75
g239
sg68
(lp246
S'cookies'
p247
asbag61
(g82
g63
NtRp248
(dp249
g66
(dp250
g93
g94
ssg75
g239
sg68
(lp251
S':'
asbag61
(g82
g63
NtRp252
(dp253
g66
(dp254
sg75
g239
sg68
(lp255
g61
(g62
g63
NtRp256
(dp257
g66
(dp258
g74
I5
ssg75
g252
sg68
(lp259
g61
(g70
g63
NtRp260
(dp261
g66
(dp262
g74
I4
ssg75
Nsg68
(lp263
g61
(g77
g63
NtRp264
(dp265
g66
(dp266
sg75
g260
sg68
(lp267
g61
(g82
g63
NtRp268
(dp269
g66
(dp270
g86
g87
ssg75
g264
sg68
(lp271
S'session_id_admin'
p272
asbag61
(g82
g63
NtRp273
(dp274
g66
(dp275
g93
g94
ssg75
g264
sg68
(lp276
S':'
asbag61
(g82
g63
NtRp277
(dp278
g66
(dp279
sg75
g264
sg68
(lp280
g61
(g62
g63
NtRp281
(dp282
g66
(dp283
g74
I4
ssg75
g277
sg68
(lp284
S'127.0.0.1-d8ffd985-8d56-418b-a22d-3928b30d840c'
p285
ag61
(g70
g63
NtRp286
(dp287
g66
(dp288
g74
I3
ssg75
Nsg68
(lp289
g61
(g77
g63
NtRp290
(dp291
g66
(dp292
sg75
g286
sg68
(lp293
g61
(g82
g63
NtRp294
(dp295
g66
(dp296
g86
g87
ssg75
g290
sg68
(lp297
S'comment'
p298
asbag61
(g82
g63
NtRp299
(dp300
g66
(dp301
g93
g94
ssg75
g290
sg68
(lp302
S':'
asbag61
(g82
g63
NtRp303
(dp304
g66
(dp305
sg75
g290
sg68
(lp306
g61
(g62
g63
NtRp307
(dp308
g66
(dp309
g74
I3
ssg75
g303
sg68
(lp310
S''
asbasbasbag61
(g77
g63
NtRp311
(dp312
g66
(dp313
sg75
g286
sg68
(lp314
g61
(g82
g63
NtRp315
(dp316
g66
(dp317
g86
g87
ssg75
g311
sg68
(lp318
S'domain'
p319
asbag61
(g82
g63
NtRp320
(dp321
g66
(dp322
g93
g94
ssg75
g311
sg68
(lp323
S':'
asbag61
(g82
g63
NtRp324
(dp325
g66
(dp326
sg75
g311
sg68
(lp327
g61
(g62
g63
NtRp328
(dp329
g66
(dp330
g74
I3
ssg75
g324
sg68
(lp331
S''
asbasbasbag61
(g77
g63
NtRp332
(dp333
g66
(dp334
sg75
g286
sg68
(lp335
g61
(g82
g63
NtRp336
(dp337
g66
(dp338
g86
g87
ssg75
g332
sg68
(lp339
S'expires'
p340
asbag61
(g82
g63
NtRp341
(dp342
g66
(dp343
g93
g94
ssg75
g332
sg68
(lp344
S':'
asbag61
(g82
g63
NtRp345
(dp346
g66
(dp347
sg75
g332
sg68
(lp348
g61
(g62
g63
NtRp349
(dp350
g66
(dp351
g74
I3
ssg75
g345
sg68
(lp352
S''
asbasbasbag61
(g77
g63
NtRp353
(dp354
g66
(dp355
sg75
g286
sg68
(lp356
g61
(g82
g63
NtRp357
(dp358
g66
(dp359
g86
g87
ssg75
g353
sg68
(lp360
S'httponly'
p361
asbag61
(g82
g63
NtRp362
(dp363
g66
(dp364
g93
g94
ssg75
g353
sg68
(lp365
S':'
asbag61
(g82
g63
NtRp366
(dp367
g66
(dp368
sg75
g353
sg68
(lp369
g61
(g62
g63
NtRp370
(dp371
g66
(dp372
g74
I3
ssg75
g366
sg68
(lp373
S''
asbasbasbag61
(g77
g63
NtRp374
(dp375
g66
(dp376
sg75
g286
sg68
(lp377
g61
(g82
g63
NtRp378
(dp379
g66
(dp380
g86
g87
ssg75
g374
sg68
(lp381
S'max-age'
p382
asbag61
(g82
g63
NtRp383
(dp384
g66
(dp385
g93
g94
ssg75
g374
sg68
(lp386
S':'
asbag61
(g82
g63
NtRp387
(dp388
g66
(dp389
sg75
g374
sg68
(lp390
g61
(g62
g63
NtRp391
(dp392
g66
(dp393
g74
I3
ssg75
g387
sg68
(lp394
S''
asbasbasbag61
(g77
g63
NtRp395
(dp396
g66
(dp397
sg75
g286
sg68
(lp398
g61
(g82
g63
NtRp399
(dp400
g66
(dp401
g86
g87
ssg75
g395
sg68
(lp402
S'path'
p403
asbag61
(g82
g63
NtRp404
(dp405
g66
(dp406
g93
g94
ssg75
g395
sg68
(lp407
S':'
asbag61
(g82
g63
NtRp408
(dp409
g66
(dp410
sg75
g395
sg68
(lp411
g61
(g62
g63
NtRp412
(dp413
g66
(dp414
g74
I3
ssg75
g408
sg68
(lp415
S''
asbasbasbag61
(g77
g63
NtRp416
(dp417
g66
(dp418
sg75
g286
sg68
(lp419
g61
(g82
g63
NtRp420
(dp421
g66
(dp422
g86
g87
ssg75
g416
sg68
(lp423
S'secure'
p424
asbag61
(g82
g63
NtRp425
(dp426
g66
(dp427
g93
g94
ssg75
g416
sg68
(lp428
S':'
asbag61
(g82
g63
NtRp429
(dp430
g66
(dp431
sg75
g416
sg68
(lp432
g61
(g62
g63
NtRp433
(dp434
g66
(dp435
g74
I3
ssg75
g429
sg68
(lp436
S''
asbasbasbag61
(g77
g63
NtRp437
(dp438
g66
(dp439
sg75
g286
sg68
(lp440
g61
(g82
g63
NtRp441
(dp442
g66
(dp443
g86
g87
ssg75
g437
sg68
(lp444
S'version'
p445
asbag61
(g82
g63
NtRp446
(dp447
g66
(dp448
g93
g94
ssg75
g437
sg68
(lp449
S':'
asbag61
(g82
g63
NtRp450
(dp451
g66
(dp452
sg75
g437
sg68
(lp453
g61
(g62
g63
NtRp454
(dp455
g66
(dp456
g74
I3
ssg75
g450
sg68
(lp457
S''
asbasbasbasbasbasbasbag61
(g77
g63
NtRp458
(dp459
g66
(dp460
sg75
g260
sg68
(lp461
g61
(g82
g63
NtRp462
(dp463
g66
(dp464
g86
g87
ssg75
g458
sg68
(lp465
S'session_id_exemplo_validators'
p466
asbag61
(g82
g63
NtRp467
(dp468
g66
(dp469
g93
g94
ssg75
g458
sg68
(lp470
S':'
asbag61
(g82
g63
NtRp471
(dp472
g66
(dp473
sg75
g458
sg68
(lp474
g61
(g62
g63
NtRp475
(dp476
g66
(dp477
g74
I4
ssg75
g471
sg68
(lp478
S'127.0.0.1-8736117a-c92b-4fe3-a63e-4f012d24926e'
p479
ag61
(g70
g63
NtRp480
(dp481
g66
(dp482
g74
I3
ssg75
Nsg68
(lp483
g61
(g77
g63
NtRp484
(dp485
g66
(dp486
sg75
g480
sg68
(lp487
g61
(g82
g63
NtRp488
(dp489
g66
(dp490
g86
g87
ssg75
g484
sg68
(lp491
g298
asbag61
(g82
g63
NtRp492
(dp493
g66
(dp494
g93
g94
ssg75
g484
sg68
(lp495
S':'
asbag61
(g82
g63
NtRp496
(dp497
g66
(dp498
sg75
g484
sg68
(lp499
g61
(g62
g63
NtRp500
(dp501
g66
(dp502
g74
I3
ssg75
g496
sg68
(lp503
S''
asbasbasbag61
(g77
g63
NtRp504
(dp505
g66
(dp506
sg75
g480
sg68
(lp507
g61
(g82
g63
NtRp508
(dp509
g66
(dp510
g86
g87
ssg75
g504
sg68
(lp511
g319
asbag61
(g82
g63
NtRp512
(dp513
g66
(dp514
g93
g94
ssg75
g504
sg68
(lp515
S':'
asbag61
(g82
g63
NtRp516
(dp517
g66
(dp518
sg75
g504
sg68
(lp519
g61
(g62
g63
NtRp520
(dp521
g66
(dp522
g74
I3
ssg75
g516
sg68
(lp523
S''
asbasbasbag61
(g77
g63
NtRp524
(dp525
g66
(dp526
sg75
g480
sg68
(lp527
g61
(g82
g63
NtRp528
(dp529
g66
(dp530
g86
g87
ssg75
g524
sg68
(lp531
g340
asbag61
(g82
g63
NtRp532
(dp533
g66
(dp534
g93
g94
ssg75
g524
sg68
(lp535
S':'
asbag61
(g82
g63
NtRp536
(dp537
g66
(dp538
sg75
g524
sg68
(lp539
g61
(g62
g63
NtRp540
(dp541
g66
(dp542
g74
I3
ssg75
g536
sg68
(lp543
S''
asbasbasbag61
(g77
g63
NtRp544
(dp545
g66
(dp546
sg75
g480
sg68
(lp547
g61
(g82
g63
NtRp548
(dp549
g66
(dp550
g86
g87
ssg75
g544
sg68
(lp551
g361
asbag61
(g82
g63
NtRp552
(dp553
g66
(dp554
g93
g94
ssg75
g544
sg68
(lp555
S':'
asbag61
(g82
g63
NtRp556
(dp557
g66
(dp558
sg75
g544
sg68
(lp559
g61
(g62
g63
NtRp560
(dp561
g66
(dp562
g74
I3
ssg75
g556
sg68
(lp563
S''
asbasbasbag61
(g77
g63
NtRp564
(dp565
g66
(dp566
sg75
g480
sg68
(lp567
g61
(g82
g63
NtRp568
(dp569
g66
(dp570
g86
g87
ssg75
g564
sg68
(lp571
g382
asbag61
(g82
g63
NtRp572
(dp573
g66
(dp574
g93
g94
ssg75
g564
sg68
(lp575
S':'
asbag61
(g82
g63
NtRp576
(dp577
g66
(dp578
sg75
g564
sg68
(lp579
g61
(g62
g63
NtRp580
(dp581
g66
(dp582
g74
I3
ssg75
g576
sg68
(lp583
S''
asbasbasbag61
(g77
g63
NtRp584
(dp585
g66
(dp586
sg75
g480
sg68
(lp587
g61
(g82
g63
NtRp588
(dp589
g66
(dp590
g86
g87
ssg75
g584
sg68
(lp591
g403
asbag61
(g82
g63
NtRp592
(dp593
g66
(dp594
g93
g94
ssg75
g584
sg68
(lp595
S':'
asbag61
(g82
g63
NtRp596
(dp597
g66
(dp598
sg75
g584
sg68
(lp599
g61
(g62
g63
NtRp600
(dp601
g66
(dp602
g74
I3
ssg75
g596
sg68
(lp603
S''
asbasbasbag61
(g77
g63
NtRp604
(dp605
g66
(dp606
sg75
g480
sg68
(lp607
g61
(g82
g63
NtRp608
(dp609
g66
(dp610
g86
g87
ssg75
g604
sg68
(lp611
g424
asbag61
(g82
g63
NtRp612
(dp613
g66
(dp614
g93
g94
ssg75
g604
sg68
(lp615
S':'
asbag61
(g82
g63
NtRp616
(dp617
g66
(dp618
sg75
g604
sg68
(lp619
g61
(g62
g63
NtRp620
(dp621
g66
(dp622
g74
I3
ssg75
g616
sg68
(lp623
S''
asbasbasbag61
(g77
g63
NtRp624
(dp625
g66
(dp626
sg75
g480
sg68
(lp627
g61
(g82
g63
NtRp628
(dp629
g66
(dp630
g86
g87
ssg75
g624
sg68
(lp631
g445
asbag61
(g82
g63
NtRp632
(dp633
g66
(dp634
g93
g94
ssg75
g624
sg68
(lp635
S':'
asbag61
(g82
g63
NtRp636
(dp637
g66
(dp638
sg75
g624
sg68
(lp639
g61
(g62
g63
NtRp640
(dp641
g66
(dp642
g74
I3
ssg75
g636
sg68
(lp643
S''
asbasbasbasbasbasbasbag61
(g77
g63
NtRp644
(dp645
g66
(dp646
sg75
g260
sg68
(lp647
g61
(g82
g63
NtRp648
(dp649
g66
(dp650
g86
g87
ssg75
g644
sg68
(lp651
S'session_id_welcome'
p652
asbag61
(g82
g63
NtRp653
(dp654
g66
(dp655
g93
g94
ssg75
g644
sg68
(lp656
S':'
asbag61
(g82
g63
NtRp657
(dp658
g66
(dp659
sg75
g644
sg68
(lp660
g61
(g62
g63
NtRp661
(dp662
g66
(dp663
g74
I4
ssg75
g657
sg68
(lp664
S'127.0.0.1-036963fe-1f03-4b95-bf40-c13fdeb8c269'
p665
ag61
(g70
g63
NtRp666
(dp667
g66
(dp668
g74
I3
ssg75
Nsg68
(lp669
g61
(g77
g63
NtRp670
(dp671
g66
(dp672
sg75
g666
sg68
(lp673
g61
(g82
g63
NtRp674
(dp675
g66
(dp676
g86
g87
ssg75
g670
sg68
(lp677
g298
asbag61
(g82
g63
NtRp678
(dp679
g66
(dp680
g93
g94
ssg75
g670
sg68
(lp681
S':'
asbag61
(g82
g63
NtRp682
(dp683
g66
(dp684
sg75
g670
sg68
(lp685
g61
(g62
g63
NtRp686
(dp687
g66
(dp688
g74
I3
ssg75
g682
sg68
(lp689
S''
asbasbasbag61
(g77
g63
NtRp690
(dp691
g66
(dp692
sg75
g666
sg68
(lp693
g61
(g82
g63
NtRp694
(dp695
g66
(dp696
g86
g87
ssg75
g690
sg68
(lp697
g319
asbag61
(g82
g63
NtRp698
(dp699
g66
(dp700
g93
g94
ssg75
g690
sg68
(lp701
S':'
asbag61
(g82
g63
NtRp702
(dp703
g66
(dp704
sg75
g690
sg68
(lp705
g61
(g62
g63
NtRp706
(dp707
g66
(dp708
g74
I3
ssg75
g702
sg68
(lp709
S''
asbasbasbag61
(g77
g63
NtRp710
(dp711
g66
(dp712
sg75
g666
sg68
(lp713
g61
(g82
g63
NtRp714
(dp715
g66
(dp716
g86
g87
ssg75
g710
sg68
(lp717
g340
asbag61
(g82
g63
NtRp718
(dp719
g66
(dp720
g93
g94
ssg75
g710
sg68
(lp721
S':'
asbag61
(g82
g63
NtRp722
(dp723
g66
(dp724
sg75
g710
sg68
(lp725
g61
(g62
g63
NtRp726
(dp727
g66
(dp728
g74
I3
ssg75
g722
sg68
(lp729
S''
asbasbasbag61
(g77
g63
NtRp730
(dp731
g66
(dp732
sg75
g666
sg68
(lp733
g61
(g82
g63
NtRp734
(dp735
g66
(dp736
g86
g87
ssg75
g730
sg68
(lp737
g361
asbag61
(g82
g63
NtRp738
(dp739
g66
(dp740
g93
g94
ssg75
g730
sg68
(lp741
S':'
asbag61
(g82
g63
NtRp742
(dp743
g66
(dp744
sg75
g730
sg68
(lp745
g61
(g62
g63
NtRp746
(dp747
g66
(dp748
g74
I3
ssg75
g742
sg68
(lp749
S''
asbasbasbag61
(g77
g63
NtRp750
(dp751
g66
(dp752
sg75
g666
sg68
(lp753
g61
(g82
g63
NtRp754
(dp755
g66
(dp756
g86
g87
ssg75
g750
sg68
(lp757
g382
asbag61
(g82
g63
NtRp758
(dp759
g66
(dp760
g93
g94
ssg75
g750
sg68
(lp761
S':'
asbag61
(g82
g63
NtRp762
(dp763
g66
(dp764
sg75
g750
sg68
(lp765
g61
(g62
g63
NtRp766
(dp767
g66
(dp768
g74
I3
ssg75
g762
sg68
(lp769
S''
asbasbasbag61
(g77
g63
NtRp770
(dp771
g66
(dp772
sg75
g666
sg68
(lp773
g61
(g82
g63
NtRp774
(dp775
g66
(dp776
g86
g87
ssg75
g770
sg68
(lp777
g403
asbag61
(g82
g63
NtRp778
(dp779
g66
(dp780
g93
g94
ssg75
g770
sg68
(lp781
S':'
asbag61
(g82
g63
NtRp782
(dp783
g66
(dp784
sg75
g770
sg68
(lp785
g61
(g62
g63
NtRp786
(dp787
g66
(dp788
g74
I3
ssg75
g782
sg68
(lp789
S''
asbasbasbag61
(g77
g63
NtRp790
(dp791
g66
(dp792
sg75
g666
sg68
(lp793
g61
(g82
g63
NtRp794
(dp795
g66
(dp796
g86
g87
ssg75
g790
sg68
(lp797
g424
asbag61
(g82
g63
NtRp798
(dp799
g66
(dp800
g93
g94
ssg75
g790
sg68
(lp801
S':'
asbag61
(g82
g63
NtRp802
(dp803
g66
(dp804
sg75
g790
sg68
(lp805
g61
(g62
g63
NtRp806
(dp807
g66
(dp808
g74
I3
ssg75
g802
sg68
(lp809
S''
asbasbasbag61
(g77
g63
NtRp810
(dp811
g66
(dp812
sg75
g666
sg68
(lp813
g61
(g82
g63
NtRp814
(dp815
g66
(dp816
g86
g87
ssg75
g810
sg68
(lp817
g445
asbag61
(g82
g63
NtRp818
(dp819
g66
(dp820
g93
g94
ssg75
g810
sg68
(lp821
S':'
asbag61
(g82
g63
NtRp822
(dp823
g66
(dp824
sg75
g810
sg68
(lp825
g61
(g62
g63
NtRp826
(dp827
g66
(dp828
g74
I3
ssg75
g822
sg68
(lp829
S''
asbasbasbasbasbasbasbasbasbasbasbag61
(g77
g63
NtRp830
(dp831
g66
(dp832
sg75
g71
sg68
(lp833
g61
(g82
g63
NtRp834
(dp835
g66
(dp836
g86
g87
ssg75
g830
sg68
(lp837
S'env'
p838
asbag61
(g82
g63
NtRp839
(dp840
g66
(dp841
g93
g94
ssg75
g830
sg68
(lp842
S':'
asbag61
(g82
g63
NtRp843
(dp844
g66
(dp845
sg75
g830
sg68
(lp846
g61
(g62
g63
NtRp847
(dp848
g66
(dp849
g74
I5
ssg75
g843
sg68
(lp850
g61
(g70
g63
NtRp851
(dp852
g66
(dp853
g74
I4
ssg75
Nsg68
(lp854
g61
(g77
g63
NtRp855
(dp856
g66
(dp857
sg75
g851
sg68
(lp858
g61
(g82
g63
NtRp859
(dp860
g66
(dp861
g86
g87
ssg75
g855
sg68
(lp862
S'app_folders'
p863
asbag61
(g82
g63
NtRp864
(dp865
g66
(dp866
g93
g94
ssg75
g855
sg68
(lp867
S':'
asbag61
(g82
g63
NtRp868
(dp869
g66
(dp870
sg75
g855
sg68
(lp871
g61
(g62
g63
NtRp872
(dp873
g66
(dp874
g74
I4
ssg75
g868
sg68
(lp875
S"set(['/Users/logan/Documents/web2py/applications/exemplo_validators/', '/Users/logan/Documents/web2py/applications/welcome/', '/Users/logan/Documents/web2py/applications/admin/'])"
p876
asbasbasbag61
(g77
g63
NtRp877
(dp878
g66
(dp879
sg75
g851
sg68
(lp880
g61
(g82
g63
NtRp881
(dp882
g66
(dp883
g86
g87
ssg75
g877
sg68
(lp884
S'applications_parent'
p885
asbag61
(g82
g63
NtRp886
(dp887
g66
(dp888
g93
g94
ssg75
g877
sg68
(lp889
S':'
asbag61
(g82
g63
NtRp890
(dp891
g66
(dp892
sg75
g877
sg68
(lp893
g61
(g62
g63
NtRp894
(dp895
g66
(dp896
g74
I4
ssg75
g890
sg68
(lp897
S'/Users/logan/Documents/web2py'
p898
asbasbasbag61
(g77
g63
NtRp899
(dp900
g66
(dp901
sg75
g851
sg68
(lp902
g61
(g82
g63
NtRp903
(dp904
g66
(dp905
g86
g87
ssg75
g899
sg68
(lp906
S'cmd_args'
p907
asbag61
(g82
g63
NtRp908
(dp909
g66
(dp910
g93
g94
ssg75
g899
sg68
(lp911
S':'
asbag61
(g82
g63
NtRp912
(dp913
g66
(dp914
sg75
g899
sg68
(lp915
g61
(g62
g63
NtRp916
(dp917
g66
(dp918
g74
I4
ssg75
g912
sg68
(lp919
g61
(g70
g63
NtRp920
(dp921
g66
(dp922
g74
I3
ssg75
Nsg68
(lp923
sbasbasbasbag61
(g77
g63
NtRp924
(dp925
g66
(dp926
sg75
g851
sg68
(lp927
g61
(g82
g63
NtRp928
(dp929
g66
(dp930
g86
g87
ssg75
g924
sg68
(lp931
S'cmd_options'
p932
asbag61
(g82
g63
NtRp933
(dp934
g66
(dp935
g93
g94
ssg75
g924
sg68
(lp936
S':'
asbag61
(g82
g63
NtRp937
(dp938
g66
(dp939
sg75
g924
sg68
(lp940
g61
(g62
g63
NtRp941
(dp942
g66
(dp943
g74
I4
ssg75
g937
sg68
(lp944
S"<Values at 0x1026b5638: {'verbose': False, 'ip': '127.0.0.1', 'with_scheduler': False, 'ips': ['192.168.1.104'], 'shutdown_timeout': 5, 'taskbar': False, 'port': 8000, 'maxthreads': None, 'softcron': False, 'server_name': 'Logan-MBP.local', 'bpython': False, 'nogui': False, 'nocron': False, 'extcron': False, 'run_system_tests': False, 'test': None, 'folder': '/Users/logan/Documents/web2py', 'config': '', 'import_models': False, 'winservice': '', 'shell': None, 'run': '', 'log_filename': 'httpserver.log', 'debuglevel': 30, 'args': [''], 'socket_timeout': 5, 'ssl_ca_certificate': None, 'scheduler': None, 'profiler_filename': None, 'ssl_private_key': '', 'scheduler_groups': None, 'password': '<ask>', 'request_queue_size': 5, 'ssl_certificate': '', 'cronjob': False, 'numthreads': None, 'quiet': False, 'interfaces': None, 'minthreads': None, 'timeout': 10, 'plain': False, 'nobanner': False, 'pid_filename': 'httpserver.pid'}>"
p945
asbasbasbag61
(g77
g63
NtRp946
(dp947
g66
(dp948
sg75
g851
sg68
(lp949
g61
(g82
g63
NtRp950
(dp951
g66
(dp952
g86
g87
ssg75
g946
sg68
(lp953
S'db_sessions'
p954
asbag61
(g82
g63
NtRp955
(dp956
g66
(dp957
g93
g94
ssg75
g946
sg68
(lp958
S':'
asbag61
(g82
g63
NtRp959
(dp960
g66
(dp961
sg75
g946
sg68
(lp962
g61
(g62
g63
NtRp963
(dp964
g66
(dp965
g74
I4
ssg75
g959
sg68
(lp966
S'set([])'
p967
asbasbasbag61
(g77
g63
NtRp968
(dp969
g66
(dp970
sg75
g851
sg68
(lp971
g61
(g82
g63
NtRp972
(dp973
g66
(dp974
g86
g87
ssg75
g968
sg68
(lp975
S'debugging'
p976
asbag61
(g82
g63
NtRp977
(dp978
g66
(dp979
g93
g94
ssg75
g968
sg68
(lp980
S':'
asbag61
(g82
g63
NtRp981
(dp982
g66
(dp983
sg75
g968
sg68
(lp984
g61
(g62
g63
NtRp985
(dp986
g66
(dp987
g74
I4
ssg75
g981
sg68
(lp988
g104
asbasbasbag61
(g77
g63
NtRp989
(dp990
g66
(dp991
sg75
g851
sg68
(lp992
g61
(g82
g63
NtRp993
(dp994
g66
(dp995
g86
g87
ssg75
g989
sg68
(lp996
S'gluon_parent'
p997
asbag61
(g82
g63
NtRp998
(dp999
g66
(dp1000
g93
g94
ssg75
g989
sg68
(lp1001
S':'
asbag61
(g82
g63
NtRp1002
(dp1003
g66
(dp1004
sg75
g989
sg68
(lp1005
g61
(g62
g63
NtRp1006
(dp1007
g66
(dp1008
g74
I4
ssg75
g1002
sg68
(lp1009
S'/Users/logan/Documents/web2py'
p1010
asbasbasbag61
(g77
g63
NtRp1011
(dp1012
g66
(dp1013
sg75
g851
sg68
(lp1014
g61
(g82
g63
NtRp1015
(dp1016
g66
(dp1017
g86
g87
ssg75
g1011
sg68
(lp1018
S'http_accept'
p1019
asbag61
(g82
g63
NtRp1020
(dp1021
g66
(dp1022
g93
g94
ssg75
g1011
sg68
(lp1023
S':'
asbag61
(g82
g63
NtRp1024
(dp1025
g66
(dp1026
sg75
g1011
sg68
(lp1027
g61
(g62
g63
NtRp1028
(dp1029
g66
(dp1030
g74
I4
ssg75
g1024
sg68
(lp1031
S'text/html,application/xhtml+xml,application/xml;q=0.9,*/*;q=0.8'
p1032
asbasbasbag61
(g77
g63
NtRp1033
(dp1034
g66
(dp1035
sg75
g851
sg68
(lp1036
g61
(g82
g63
NtRp1037
(dp1038
g66
(dp1039
g86
g87
ssg75
g1033
sg68
(lp1040
S'http_accept_charset'
p1041
asbag61
(g82
g63
NtRp1042
(dp1043
g66
(dp1044
g93
g94
ssg75
g1033
sg68
(lp1045
S':'
asbag61
(g82
g63
NtRp1046
(dp1047
g66
(dp1048
sg75
g1033
sg68
(lp1049
g61
(g62
g63
NtRp1050
(dp1051
g66
(dp1052
g74
I4
ssg75
g1046
sg68
(lp1053
S'ISO-8859-1,utf-8;q=0.7,*;q=0.3'
p1054
asbasbasbag61
(g77
g63
NtRp1055
(dp1056
g66
(dp1057
sg75
g851
sg68
(lp1058
g61
(g82
g63
NtRp1059
(dp1060
g66
(dp1061
g86
g87
ssg75
g1055
sg68
(lp1062
S'http_accept_encoding'
p1063
asbag61
(g82
g63
NtRp1064
(dp1065
g66
(dp1066
g93
g94
ssg75
g1055
sg68
(lp1067
S':'
asbag61
(g82
g63
NtRp1068
(dp1069
g66
(dp1070
sg75
g1055
sg68
(lp1071
g61
(g62
g63
NtRp1072
(dp1073
g66
(dp1074
g74
I4
ssg75
g1068
sg68
(lp1075
S'gzip,deflate,sdch'
p1076
asbasbasbag61
(g77
g63
NtRp1077
(dp1078
g66
(dp1079
sg75
g851
sg68
(lp1080
g61
(g82
g63
NtRp1081
(dp1082
g66
(dp1083
g86
g87
ssg75
g1077
sg68
(lp1084
S'http_accept_language'
p1085
asbag61
(g82
g63
NtRp1086
(dp1087
g66
(dp1088
g93
g94
ssg75
g1077
sg68
(lp1089
S':'
asbag61
(g82
g63
NtRp1090
(dp1091
g66
(dp1092
sg75
g1077
sg68
(lp1093
g61
(g62
g63
NtRp1094
(dp1095
g66
(dp1096
g74
I4
ssg75
g1090
sg68
(lp1097
S'en-US,en;q=0.8'
p1098
asbasbasbag61
(g77
g63
NtRp1099
(dp1100
g66
(dp1101
sg75
g851
sg68
(lp1102
g61
(g82
g63
NtRp1103
(dp1104
g66
(dp1105
g86
g87
ssg75
g1099
sg68
(lp1106
S'http_cache_control'
p1107
asbag61
(g82
g63
NtRp1108
(dp1109
g66
(dp1110
g93
g94
ssg75
g1099
sg68
(lp1111
S':'
asbag61
(g82
g63
NtRp1112
(dp1113
g66
(dp1114
sg75
g1099
sg68
(lp1115
g61
(g62
g63
NtRp1116
(dp1117
g66
(dp1118
g74
I4
ssg75
g1112
sg68
(lp1119
S'max-age=0'
p1120
asbasbasbag61
(g77
g63
NtRp1121
(dp1122
g66
(dp1123
sg75
g851
sg68
(lp1124
g61
(g82
g63
NtRp1125
(dp1126
g66
(dp1127
g86
g87
ssg75
g1121
sg68
(lp1128
S'http_connection'
p1129
asbag61
(g82
g63
NtRp1130
(dp1131
g66
(dp1132
g93
g94
ssg75
g1121
sg68
(lp1133
S':'
asbag61
(g82
g63
NtRp1134
(dp1135
g66
(dp1136
sg75
g1121
sg68
(lp1137
g61
(g62
g63
NtRp1138
(dp1139
g66
(dp1140
g74
I4
ssg75
g1134
sg68
(lp1141
S'keep-alive'
p1142
asbasbasbag61
(g77
g63
NtRp1143
(dp1144
g66
(dp1145
sg75
g851
sg68
(lp1146
g61
(g82
g63
NtRp1147
(dp1148
g66
(dp1149
g86
g87
ssg75
g1143
sg68
(lp1150
S'http_cookie'
p1151
asbag61
(g82
g63
NtRp1152
(dp1153
g66
(dp1154
g93
g94
ssg75
g1143
sg68
(lp1155
S':'
asbag61
(g82
g63
NtRp1156
(dp1157
g66
(dp1158
sg75
g1143
sg68
(lp1159
g61
(g62
g63
NtRp1160
(dp1161
g66
(dp1162
g74
I4
ssg75
g1156
sg68
(lp1163
S'session_id_welcome=127.0.0.1-036963fe-1f03-4b95-bf40-c13fdeb8c269; session_id_admin=127.0.0.1-d8ffd985-8d56-418b-a22d-3928b30d840c; session_id_exemplo_validators=127.0.0.1-8736117a-c92b-4fe3-a63e-4f012d24926e'
p1164
asbasbasbag61
(g77
g63
NtRp1165
(dp1166
g66
(dp1167
sg75
g851
sg68
(lp1168
g61
(g82
g63
NtRp1169
(dp1170
g66
(dp1171
g86
g87
ssg75
g1165
sg68
(lp1172
S'http_host'
p1173
asbag61
(g82
g63
NtRp1174
(dp1175
g66
(dp1176
g93
g94
ssg75
g1165
sg68
(lp1177
S':'
asbag61
(g82
g63
NtRp1178
(dp1179
g66
(dp1180
sg75
g1165
sg68
(lp1181
g61
(g62
g63
NtRp1182
(dp1183
g66
(dp1184
g74
I4
ssg75
g1178
sg68
(lp1185
S'127.0.0.1:8000'
p1186
asbasbasbag61
(g77
g63
NtRp1187
(dp1188
g66
(dp1189
sg75
g851
sg68
(lp1190
g61
(g82
g63
NtRp1191
(dp1192
g66
(dp1193
g86
g87
ssg75
g1187
sg68
(lp1194
S'http_referer'
p1195
asbag61
(g82
g63
NtRp1196
(dp1197
g66
(dp1198
g93
g94
ssg75
g1187
sg68
(lp1199
S':'
asbag61
(g82
g63
NtRp1200
(dp1201
g66
(dp1202
sg75
g1187
sg68
(lp1203
g61
(g62
g63
NtRp1204
(dp1205
g66
(dp1206
g74
I4
ssg75
g1200
sg68
(lp1207
S'http://127.0.0.1:8000/exemplo_validators/funcionarios/'
p1208
asbasbasbag61
(g77
g63
NtRp1209
(dp1210
g66
(dp1211
sg75
g851
sg68
(lp1212
g61
(g82
g63
NtRp1213
(dp1214
g66
(dp1215
g86
g87
ssg75
g1209
sg68
(lp1216
S'http_user_agent'
p1217
asbag61
(g82
g63
NtRp1218
(dp1219
g66
(dp1220
g93
g94
ssg75
g1209
sg68
(lp1221
S':'
asbag61
(g82
g63
NtRp1222
(dp1223
g66
(dp1224
sg75
g1209
sg68
(lp1225
g61
(g62
g63
NtRp1226
(dp1227
g66
(dp1228
g74
I4
ssg75
g1222
sg68
(lp1229
S'Mozilla/5.0 (Macintosh; Intel Mac OS X 10_8_2) AppleWebKit/537.4 (KHTML, like Gecko) Chrome/22.0.1229.79 Safari/537.4'
p1230
asbasbasbag61
(g77
g63
NtRp1231
(dp1232
g66
(dp1233
sg75
g851
sg68
(lp1234
g61
(g82
g63
NtRp1235
(dp1236
g66
(dp1237
g86
g87
ssg75
g1231
sg68
(lp1238
S'is_jython'
p1239
asbag61
(g82
g63
NtRp1240
(dp1241
g66
(dp1242
g93
g94
ssg75
g1231
sg68
(lp1243
S':'
asbag61
(g82
g63
NtRp1244
(dp1245
g66
(dp1246
sg75
g1231
sg68
(lp1247
g61
(g62
g63
NtRp1248
(dp1249
g66
(dp1250
g74
I4
ssg75
g1244
sg68
(lp1251
g104
asbasbasbag61
(g77
g63
NtRp1252
(dp1253
g66
(dp1254
sg75
g851
sg68
(lp1255
g61
(g82
g63
NtRp1256
(dp1257
g66
(dp1258
g86
g87
ssg75
g1252
sg68
(lp1259
S'is_pypy'
p1260
asbag61
(g82
g63
NtRp1261
(dp1262
g66
(dp1263
g93
g94
ssg75
g1252
sg68
(lp1264
S':'
asbag61
(g82
g63
NtRp1265
(dp1266
g66
(dp1267
sg75
g1252
sg68
(lp1268
g61
(g62
g63
NtRp1269
(dp1270
g66
(dp1271
g74
I4
ssg75
g1265
sg68
(lp1272
g104
asbasbasbag61
(g77
g63
NtRp1273
(dp1274
g66
(dp1275
sg75
g851
sg68
(lp1276
g61
(g82
g63
NtRp1277
(dp1278
g66
(dp1279
g86
g87
ssg75
g1273
sg68
(lp1280
S'path_info'
p1281
asbag61
(g82
g63
NtRp1282
(dp1283
g66
(dp1284
g93
g94
ssg75
g1273
sg68
(lp1285
S':'
asbag61
(g82
g63
NtRp1286
(dp1287
g66
(dp1288
sg75
g1273
sg68
(lp1289
g61
(g62
g63
NtRp1290
(dp1291
g66
(dp1292
g74
I4
ssg75
g1286
sg68
(lp1293
S'/exemplo_validators/funcionarios/novo'
p1294
asbasbasbag61
(g77
g63
NtRp1295
(dp1296
g66
(dp1297
sg75
g851
sg68
(lp1298
g61
(g82
g63
NtRp1299
(dp1300
g66
(dp1301
g86
g87
ssg75
g1295
sg68
(lp1302
S'query_string'
p1303
asbag61
(g82
g63
NtRp1304
(dp1305
g66
(dp1306
g93
g94
ssg75
g1295
sg68
(lp1307
S':'
asbag61
(g82
g63
NtRp1308
(dp1309
g66
(dp1310
sg75
g1295
sg68
(lp1311
g61
(g62
g63
NtRp1312
(dp1313
g66
(dp1314
g74
I4
ssg75
g1308
sg68
(lp1315
S''
asbasbasbag61
(g77
g63
NtRp1316
(dp1317
g66
(dp1318
sg75
g851
sg68
(lp1319
g61
(g82
g63
NtRp1320
(dp1321
g66
(dp1322
g86
g87
ssg75
g1316
sg68
(lp1323
S'remote_addr'
p1324
asbag61
(g82
g63
NtRp1325
(dp1326
g66
(dp1327
g93
g94
ssg75
g1316
sg68
(lp1328
S':'
asbag61
(g82
g63
NtRp1329
(dp1330
g66
(dp1331
sg75
g1316
sg68
(lp1332
g61
(g62
g63
NtRp1333
(dp1334
g66
(dp1335
g74
I4
ssg75
g1329
sg68
(lp1336
g216
asbasbasbag61
(g77
g63
NtRp1337
(dp1338
g66
(dp1339
sg75
g851
sg68
(lp1340
g61
(g82
g63
NtRp1341
(dp1342
g66
(dp1343
g86
g87
ssg75
g1337
sg68
(lp1344
S'remote_port'
p1345
asbag61
(g82
g63
NtRp1346
(dp1347
g66
(dp1348
g93
g94
ssg75
g1337
sg68
(lp1349
S':'
asbag61
(g82
g63
NtRp1350
(dp1351
g66
(dp1352
sg75
g1337
sg68
(lp1353
g61
(g62
g63
NtRp1354
(dp1355
g66
(dp1356
g74
I4
ssg75
g1350
sg68
(lp1357
S'51341'
p1358
asbasbasbag61
(g77
g63
NtRp1359
(dp1360
g66
(dp1361
sg75
g851
sg68
(lp1362
g61
(g82
g63
NtRp1363
(dp1364
g66
(dp1365
g86
g87
ssg75
g1359
sg68
(lp1366
S'request_method'
p1367
asbag61
(g82
g63
NtRp1368
(dp1369
g66
(dp1370
g93
g94
ssg75
g1359
sg68
(lp1371
S':'
asbag61
(g82
g63
NtRp1372
(dp1373
g66
(dp1374
sg75
g1359
sg68
(lp1375
g61
(g62
g63
NtRp1376
(dp1377
g66
(dp1378
g74
I4
ssg75
g1372
sg68
(lp1379
S'GET'
p1380
asbasbasbag61
(g77
g63
NtRp1381
(dp1382
g66
(dp1383
sg75
g851
sg68
(lp1384
g61
(g82
g63
NtRp1385
(dp1386
g66
(dp1387
g86
g87
ssg75
g1381
sg68
(lp1388
S'request_uri'
p1389
asbag61
(g82
g63
NtRp1390
(dp1391
g66
(dp1392
g93
g94
ssg75
g1381
sg68
(lp1393
S':'
asbag61
(g82
g63
NtRp1394
(dp1395
g66
(dp1396
sg75
g1381
sg68
(lp1397
g61
(g62
g63
NtRp1398
(dp1399
g66
(dp1400
g74
I4
ssg75
g1394
sg68
(lp1401
g1294
asbasbasbag61
(g77
g63
NtRp1402
(dp1403
g66
(dp1404
sg75
g851
sg68
(lp1405
g61
(g82
g63
NtRp1406
(dp1407
g66
(dp1408
g86
g87
ssg75
g1402
sg68
(lp1409
S'script_name'
p1410
asbag61
(g82
g63
NtRp1411
(dp1412
g66
(dp1413
g93
g94
ssg75
g1402
sg68
(lp1414
S':'
asbag61
(g82
g63
NtRp1415
(dp1416
g66
(dp1417
sg75
g1402
sg68
(lp1418
g61
(g62
g63
NtRp1419
(dp1420
g66
(dp1421
g74
I4
ssg75
g1415
sg68
(lp1422
S''
asbasbasbag61
(g77
g63
NtRp1423
(dp1424
g66
(dp1425
sg75
g851
sg68
(lp1426
g61
(g82
g63
NtRp1427
(dp1428
g66
(dp1429
g86
g87
ssg75
g1423
sg68
(lp1430
S'server_name'
p1431
asbag61
(g82
g63
NtRp1432
(dp1433
g66
(dp1434
g93
g94
ssg75
g1423
sg68
(lp1435
S':'
asbag61
(g82
g63
NtRp1436
(dp1437
g66
(dp1438
sg75
g1423
sg68
(lp1439
g61
(g62
g63
NtRp1440
(dp1441
g66
(dp1442
g74
I4
ssg75
g1436
sg68
(lp1443
S'Logan-MBP.local'
p1444
asbasbasbag61
(g77
g63
NtRp1445
(dp1446
g66
(dp1447
sg75
g851
sg68
(lp1448
g61
(g82
g63
NtRp1449
(dp1450
g66
(dp1451
g86
g87
ssg75
g1445
sg68
(lp1452
S'server_port'
p1453
asbag61
(g82
g63
NtRp1454
(dp1455
g66
(dp1456
g93
g94
ssg75
g1445
sg68
(lp1457
S':'
asbag61
(g82
g63
NtRp1458
(dp1459
g66
(dp1460
sg75
g1445
sg68
(lp1461
g61
(g62
g63
NtRp1462
(dp1463
g66
(dp1464
g74
I4
ssg75
g1458
sg68
(lp1465
S'8000'
p1466
asbasbasbag61
(g77
g63
NtRp1467
(dp1468
g66
(dp1469
sg75
g851
sg68
(lp1470
g61
(g82
g63
NtRp1471
(dp1472
g66
(dp1473
g86
g87
ssg75
g1467
sg68
(lp1474
S'server_protocol'
p1475
asbag61
(g82
g63
NtRp1476
(dp1477
g66
(dp1478
g93
g94
ssg75
g1467
sg68
(lp1479
S':'
asbag61
(g82
g63
NtRp1480
(dp1481
g66
(dp1482
sg75
g1467
sg68
(lp1483
g61
(g62
g63
NtRp1484
(dp1485
g66
(dp1486
g74
I4
ssg75
g1480
sg68
(lp1487
S'HTTP/1.1'
p1488
asbasbasbag61
(g77
g63
NtRp1489
(dp1490
g66
(dp1491
sg75
g851
sg68
(lp1492
g61
(g82
g63
NtRp1493
(dp1494
g66
(dp1495
g86
g87
ssg75
g1489
sg68
(lp1496
S'server_software'
p1497
asbag61
(g82
g63
NtRp1498
(dp1499
g66
(dp1500
g93
g94
ssg75
g1489
sg68
(lp1501
S':'
asbag61
(g82
g63
NtRp1502
(dp1503
g66
(dp1504
sg75
g1489
sg68
(lp1505
g61
(g62
g63
NtRp1506
(dp1507
g66
(dp1508
g74
I4
ssg75
g1502
sg68
(lp1509
S'Rocket 1.2.4'
p1510
asbasbasbag61
(g77
g63
NtRp1511
(dp1512
g66
(dp1513
sg75
g851
sg68
(lp1514
g61
(g82
g63
NtRp1515
(dp1516
g66
(dp1517
g86
g87
ssg75
g1511
sg68
(lp1518
S'web2py_crontype'
p1519
asbag61
(g82
g63
NtRp1520
(dp1521
g66
(dp1522
g93
g94
ssg75
g1511
sg68
(lp1523
S':'
asbag61
(g82
g63
NtRp1524
(dp1525
g66
(dp1526
sg75
g1511
sg68
(lp1527
g61
(g62
g63
NtRp1528
(dp1529
g66
(dp1530
g74
I4
ssg75
g1524
sg68
(lp1531
S'hard'
p1532
asbasbasbag61
(g77
g63
NtRp1533
(dp1534
g66
(dp1535
sg75
g851
sg68
(lp1536
g61
(g82
g63
NtRp1537
(dp1538
g66
(dp1539
g86
g87
ssg75
g1533
sg68
(lp1540
S'web2py_path'
p1541
asbag61
(g82
g63
NtRp1542
(dp1543
g66
(dp1544
g93
g94
ssg75
g1533
sg68
(lp1545
S':'
asbag61
(g82
g63
NtRp1546
(dp1547
g66
(dp1548
sg75
g1533
sg68
(lp1549
g61
(g62
g63
NtRp1550
(dp1551
g66
(dp1552
g74
I4
ssg75
g1546
sg68
(lp1553
g898
asbasbasbag61
(g77
g63
NtRp1554
(dp1555
g66
(dp1556
sg75
g851
sg68
(lp1557
g61
(g82
g63
NtRp1558
(dp1559
g66
(dp1560
g86
g87
ssg75
g1554
sg68
(lp1561
S'web2py_version'
p1562
asbag61
(g82
g63
NtRp1563
(dp1564
g66
(dp1565
g93
g94
ssg75
g1554
sg68
(lp1566
S':'
asbag61
(g82
g63
NtRp1567
(dp1568
g66
(dp1569
sg75
g1554
sg68
(lp1570
g61
(g62
g63
NtRp1571
(dp1572
g66
(dp1573
g74
I4
ssg75
g1567
sg68
(lp1574
g61
(g70
g63
NtRp1575
(dp1576
g66
(dp1577
g74
I3
ssg75
Nsg68
(lp1578
g61
(g77
g63
NtRp1579
(dp1580
g66
(dp1581
sg75
g1575
sg68
(lp1582
g61
(g82
g63
NtRp1583
(dp1584
g66
(dp1585
sg75
g1579
sg68
(lp1586
g61
(g62
g63
NtRp1587
(dp1588
g66
(dp1589
g74
I3
ssg75
g1583
sg68
(lp1590
S'2'
asbasbasbag61
(g77
g63
NtRp1591
(dp1592
g66
(dp1593
sg75
g1575
sg68
(lp1594
g61
(g82
g63
NtRp1595
(dp1596
g66
(dp1597
sg75
g1591
sg68
(lp1598
g61
(g62
g63
NtRp1599
(dp1600
g66
(dp1601
g74
I3
ssg75
g1595
sg68
(lp1602
S'0'
asbasbasbag61
(g77
g63
NtRp1603
(dp1604
g66
(dp1605
sg75
g1575
sg68
(lp1606
g61
(g82
g63
NtRp1607
(dp1608
g66
(dp1609
sg75
g1603
sg68
(lp1610
g61
(g62
g63
NtRp1611
(dp1612
g66
(dp1613
g74
I3
ssg75
g1607
sg68
(lp1614
S'9'
asbasbasbag61
(g77
g63
NtRp1615
(dp1616
g66
(dp1617
sg75
g1575
sg68
(lp1618
g61
(g82
g63
NtRp1619
(dp1620
g66
(dp1621
sg75
g1615
sg68
(lp1622
g61
(g62
g63
NtRp1623
(dp1624
g66
(dp1625
g74
I3
ssg75
g1619
sg68
(lp1626
S'datetime.datetime(2012, 9, 13, 23, 51, 30)'
p1627
asbasbasbag61
(g77
g63
NtRp1628
(dp1629
g66
(dp1630
sg75
g1575
sg68
(lp1631
g61
(g82
g63
NtRp1632
(dp1633
g66
(dp1634
sg75
g1628
sg68
(lp1635
g61
(g62
g63
NtRp1636
(dp1637
g66
(dp1638
g74
I3
ssg75
g1632
sg68
(lp1639
S'stable'
p1640
asbasbasbasbasbasbasbag61
(g77
g63
NtRp1641
(dp1642
g66
(dp1643
sg75
g851
sg68
(lp1644
g61
(g82
g63
NtRp1645
(dp1646
g66
(dp1647
g86
g87
ssg75
g1641
sg68
(lp1648
S'wsgi_errors'
p1649
asbag61
(g82
g63
NtRp1650
(dp1651
g66
(dp1652
g93
g94
ssg75
g1641
sg68
(lp1653
S':'
asbag61
(g82
g63
NtRp1654
(dp1655
g66
(dp1656
sg75
g1641
sg68
(lp1657
g61
(g62
g63
NtRp1658
(dp1659
g66
(dp1660
g74
I4
ssg75
g1654
sg68
(lp1661
S"<open file '<stderr>', mode 'w' at 0x101caa270>"
p1662
asbasbasbag61
(g77
g63
NtRp1663
(dp1664
g66
(dp1665
sg75
g851
sg68
(lp1666
g61
(g82
g63
NtRp1667
(dp1668
g66
(dp1669
g86
g87
ssg75
g1663
sg68
(lp1670
S'wsgi_file_wrapper'
p1671
asbag61
(g82
g63
NtRp1672
(dp1673
g66
(dp1674
g93
g94
ssg75
g1663
sg68
(lp1675
S':'
asbag61
(g82
g63
NtRp1676
(dp1677
g66
(dp1678
sg75
g1663
sg68
(lp1679
g61
(g62
g63
NtRp1680
(dp1681
g66
(dp1682
g74
I4
ssg75
g1676
sg68
(lp1683
S'<class wsgiref.util.FileWrapper at 0x1026a5050>'
p1684
asbasbasbag61
(g77
g63
NtRp1685
(dp1686
g66
(dp1687
sg75
g851
sg68
(lp1688
g61
(g82
g63
NtRp1689
(dp1690
g66
(dp1691
g86
g87
ssg75
g1685
sg68
(lp1692
S'wsgi_input'
p1693
asbag61
(g82
g63
NtRp1694
(dp1695
g66
(dp1696
g93
g94
ssg75
g1685
sg68
(lp1697
S':'
asbag61
(g82
g63
NtRp1698
(dp1699
g66
(dp1700
sg75
g1685
sg68
(lp1701
g61
(g62
g63
NtRp1702
(dp1703
g66
(dp1704
g74
I4
ssg75
g1698
sg68
(lp1705
S'<socket._fileobject object at 0x10291c0d0>'
p1706
asbasbasbag61
(g77
g63
NtRp1707
(dp1708
g66
(dp1709
sg75
g851
sg68
(lp1710
g61
(g82
g63
NtRp1711
(dp1712
g66
(dp1713
g86
g87
ssg75
g1707
sg68
(lp1714
S'wsgi_multiprocess'
p1715
asbag61
(g82
g63
NtRp1716
(dp1717
g66
(dp1718
g93
g94
ssg75
g1707
sg68
(lp1719
S':'
asbag61
(g82
g63
NtRp1720
(dp1721
g66
(dp1722
sg75
g1707
sg68
(lp1723
g61
(g62
g63
NtRp1724
(dp1725
g66
(dp1726
g74
I4
ssg75
g1720
sg68
(lp1727
g104
asbasbasbag61
(g77
g63
NtRp1728
(dp1729
g66
(dp1730
sg75
g851
sg68
(lp1731
g61
(g82
g63
NtRp1732
(dp1733
g66
(dp1734
g86
g87
ssg75
g1728
sg68
(lp1735
S'wsgi_multithread'
p1736
asbag61
(g82
g63
NtRp1737
(dp1738
g66
(dp1739
g93
g94
ssg75
g1728
sg68
(lp1740
S':'
asbag61
(g82
g63
NtRp1741
(dp1742
g66
(dp1743
sg75
g1728
sg68
(lp1744
g61
(g62
g63
NtRp1745
(dp1746
g66
(dp1747
g74
I4
ssg75
g1741
sg68
(lp1748
S'True'
p1749
asbasbasbag61
(g77
g63
NtRp1750
(dp1751
g66
(dp1752
sg75
g851
sg68
(lp1753
g61
(g82
g63
NtRp1754
(dp1755
g66
(dp1756
g86
g87
ssg75
g1750
sg68
(lp1757
S'wsgi_run_once'
p1758
asbag61
(g82
g63
NtRp1759
(dp1760
g66
(dp1761
g93
g94
ssg75
g1750
sg68
(lp1762
S':'
asbag61
(g82
g63
NtRp1763
(dp1764
g66
(dp1765
sg75
g1750
sg68
(lp1766
g61
(g62
g63
NtRp1767
(dp1768
g66
(dp1769
g74
I4
ssg75
g1763
sg68
(lp1770
g104
asbasbasbag61
(g77
g63
NtRp1771
(dp1772
g66
(dp1773
sg75
g851
sg68
(lp1774
g61
(g82
g63
NtRp1775
(dp1776
g66
(dp1777
g86
g87
ssg75
g1771
sg68
(lp1778
S'wsgi_url_scheme'
p1779
asbag61
(g82
g63
NtRp1780
(dp1781
g66
(dp1782
g93
g94
ssg75
g1771
sg68
(lp1783
S':'
asbag61
(g82
g63
NtRp1784
(dp1785
g66
(dp1786
sg75
g1771
sg68
(lp1787
g61
(g62
g63
NtRp1788
(dp1789
g66
(dp1790
g74
I4
ssg75
g1784
sg68
(lp1791
S'http'
p1792
asbasbasbag61
(g77
g63
NtRp1793
(dp1794
g66
(dp1795
sg75
g851
sg68
(lp1796
g61
(g82
g63
NtRp1797
(dp1798
g66
(dp1799
g86
g87
ssg75
g1793
sg68
(lp1800
S'wsgi_version'
p1801
asbag61
(g82
g63
NtRp1802
(dp1803
g66
(dp1804
g93
g94
ssg75
g1793
sg68
(lp1805
S':'
asbag61
(g82
g63
NtRp1806
(dp1807
g66
(dp1808
sg75
g1793
sg68
(lp1809
g61
(g62
g63
NtRp1810
(dp1811
g66
(dp1812
g74
I4
ssg75
g1806
sg68
(lp1813
g61
(g70
g63
NtRp1814
(dp1815
g66
(dp1816
g74
I3
ssg75
Nsg68
(lp1817
g61
(g77
g63
NtRp1818
(dp1819
g66
(dp1820
sg75
g1814
sg68
(lp1821
g61
(g82
g63
NtRp1822
(dp1823
g66
(dp1824
sg75
g1818
sg68
(lp1825
g61
(g62
g63
NtRp1826
(dp1827
g66
(dp1828
g74
I3
ssg75
g1822
sg68
(lp1829
S'1'
asbasbasbag61
(g77
g63
NtRp1830
(dp1831
g66
(dp1832
sg75
g1814
sg68
(lp1833
g61
(g82
g63
NtRp1834
(dp1835
g66
(dp1836
sg75
g1830
sg68
(lp1837
g61
(g62
g63
NtRp1838
(dp1839
g66
(dp1840
g74
I3
ssg75
g1834
sg68
(lp1841
S'0'
asbasbasbasbasbasbasbasbasbasbasbag61
(g77
g63
NtRp1842
(dp1843
g66
(dp1844
sg75
g71
sg68
(lp1845
g61
(g82
g63
NtRp1846
(dp1847
g66
(dp1848
g86
g87
ssg75
g1842
sg68
(lp1849
S'extension'
p1850
asbag61
(g82
g63
NtRp1851
(dp1852
g66
(dp1853
g93
g94
ssg75
g1842
sg68
(lp1854
S':'
asbag61
(g82
g63
NtRp1855
(dp1856
g66
(dp1857
sg75
g1842
sg68
(lp1858
g61
(g62
g63
NtRp1859
(dp1860
g66
(dp1861
g74
I5
ssg75
g1855
sg68
(lp1862
S'html'
p1863
asbasbasbag61
(g77
g63
NtRp1864
(dp1865
g66
(dp1866
sg75
g71
sg68
(lp1867
g61
(g82
g63
NtRp1868
(dp1869
g66
(dp1870
g86
g87
ssg75
g1864
sg68
(lp1871
S'folder'
p1872
asbag61
(g82
g63
NtRp1873
(dp1874
g66
(dp1875
g93
g94
ssg75
g1864
sg68
(lp1876
S':'
asbag61
(g82
g63
NtRp1877
(dp1878
g66
(dp1879
sg75
g1864
sg68
(lp1880
g61
(g62
g63
NtRp1881
(dp1882
g66
(dp1883
g74
I5
ssg75
g1877
sg68
(lp1884
S'/Users/logan/Documents/web2py/applications/exemplo_validators/'
p1885
asbasbasbag61
(g77
g63
NtRp1886
(dp1887
g66
(dp1888
sg75
g71
sg68
(lp1889
g61
(g82
g63
NtRp1890
(dp1891
g66
(dp1892
g86
g87
ssg75
g1886
sg68
(lp1893
S'function'
p1894
asbag61
(g82
g63
NtRp1895
(dp1896
g66
(dp1897
g93
g94
ssg75
g1886
sg68
(lp1898
S':'
asbag61
(g82
g63
NtRp1899
(dp1900
g66
(dp1901
sg75
g1886
sg68
(lp1902
g61
(g62
g63
NtRp1903
(dp1904
g66
(dp1905
g74
I5
ssg75
g1899
sg68
(lp1906
S'novo'
p1907
asbasbasbag61
(g77
g63
NtRp1908
(dp1909
g66
(dp1910
sg75
g71
sg68
(lp1911
g61
(g82
g63
NtRp1912
(dp1913
g66
(dp1914
g86
g87
ssg75
g1908
sg68
(lp1915
S'get_vars'
p1916
asbag61
(g82
g63
NtRp1917
(dp1918
g66
(dp1919
g93
g94
ssg75
g1908
sg68
(lp1920
S':'
asbag61
(g82
g63
NtRp1921
(dp1922
g66
(dp1923
sg75
g1908
sg68
(lp1924
g61
(g62
g63
NtRp1925
(dp1926
g66
(dp1927
g74
I5
ssg75
g1921
sg68
(lp1928
g61
(g70
g63
NtRp1929
(dp1930
g66
(dp1931
g74
I4
ssg75
Nsg68
(lp1932
sbasbasbasbag61
(g77
g63
NtRp1933
(dp1934
g66
(dp1935
sg75
g71
sg68
(lp1936
g61
(g82
g63
NtRp1937
(dp1938
g66
(dp1939
g86
g87
ssg75
g1933
sg68
(lp1940
S'global_settings'
p1941
asbag61
(g82
g63
NtRp1942
(dp1943
g66
(dp1944
g93
g94
ssg75
g1933
sg68
(lp1945
S':'
asbag61
(g82
g63
NtRp1946
(dp1947
g66
(dp1948
sg75
g1933
sg68
(lp1949
g61
(g62
g63
NtRp1950
(dp1951
g66
(dp1952
g74
I5
ssg75
g1946
sg68
(lp1953
g61
(g70
g63
NtRp1954
(dp1955
g66
(dp1956
g74
I4
ssg75
Nsg68
(lp1957
g61
(g77
g63
NtRp1958
(dp1959
g66
(dp1960
sg75
g1954
sg68
(lp1961
g61
(g82
g63
NtRp1962
(dp1963
g66
(dp1964
g86
g87
ssg75
g1958
sg68
(lp1965
g863
asbag61
(g82
g63
NtRp1966
(dp1967
g66
(dp1968
g93
g94
ssg75
g1958
sg68
(lp1969
S':'
asbag61
(g82
g63
NtRp1970
(dp1971
g66
(dp1972
sg75
g1958
sg68
(lp1973
g61
(g62
g63
NtRp1974
(dp1975
g66
(dp1976
g74
I4
ssg75
g1970
sg68
(lp1977
S"set(['/Users/logan/Documents/web2py/applications/exemplo_validators/', '/Users/logan/Documents/web2py/applications/welcome/', '/Users/logan/Documents/web2py/applications/admin/'])"
p1978
asbasbasbag61
(g77
g63
NtRp1979
(dp1980
g66
(dp1981
sg75
g1954
sg68
(lp1982
g61
(g82
g63
NtRp1983
(dp1984
g66
(dp1985
g86
g87
ssg75
g1979
sg68
(lp1986
g885
asbag61
(g82
g63
NtRp1987
(dp1988
g66
(dp1989
g93
g94
ssg75
g1979
sg68
(lp1990
S':'
asbag61
(g82
g63
NtRp1991
(dp1992
g66
(dp1993
sg75
g1979
sg68
(lp1994
g61
(g62
g63
NtRp1995
(dp1996
g66
(dp1997
g74
I4
ssg75
g1991
sg68
(lp1998
g898
asbasbasbag61
(g77
g63
NtRp1999
(dp2000
g66
(dp2001
sg75
g1954
sg68
(lp2002
g61
(g82
g63
NtRp2003
(dp2004
g66
(dp2005
g86
g87
ssg75
g1999
sg68
(lp2006
g907
asbag61
(g82
g63
NtRp2007
(dp2008
g66
(dp2009
g93
g94
ssg75
g1999
sg68
(lp2010
S':'
asbag61
(g82
g63
NtRp2011
(dp2012
g66
(dp2013
sg75
g1999
sg68
(lp2014
g61
(g62
g63
NtRp2015
(dp2016
g66
(dp2017
g74
I4
ssg75
g2011
sg68
(lp2018
g61
(g70
g63
NtRp2019
(dp2020
g66
(dp2021
g74
I3
ssg75
Nsg68
(lp2022
sbasbasbasbag61
(g77
g63
NtRp2023
(dp2024
g66
(dp2025
sg75
g1954
sg68
(lp2026
g61
(g82
g63
NtRp2027
(dp2028
g66
(dp2029
g86
g87
ssg75
g2023
sg68
(lp2030
g932
asbag61
(g82
g63
NtRp2031
(dp2032
g66
(dp2033
g93
g94
ssg75
g2023
sg68
(lp2034
S':'
asbag61
(g82
g63
NtRp2035
(dp2036
g66
(dp2037
sg75
g2023
sg68
(lp2038
g61
(g62
g63
NtRp2039
(dp2040
g66
(dp2041
g74
I4
ssg75
g2035
sg68
(lp2042
S"<Values at 0x1026b5638: {'verbose': False, 'ip': '127.0.0.1', 'with_scheduler': False, 'ips': ['192.168.1.104'], 'shutdown_timeout': 5, 'taskbar': False, 'port': 8000, 'maxthreads': None, 'softcron': False, 'server_name': 'Logan-MBP.local', 'bpython': False, 'nogui': False, 'nocron': False, 'extcron': False, 'run_system_tests': False, 'test': None, 'folder': '/Users/logan/Documents/web2py', 'config': '', 'import_models': False, 'winservice': '', 'shell': None, 'run': '', 'log_filename': 'httpserver.log', 'debuglevel': 30, 'args': [''], 'socket_timeout': 5, 'ssl_ca_certificate': None, 'scheduler': None, 'profiler_filename': None, 'ssl_private_key': '', 'scheduler_groups': None, 'password': '<ask>', 'request_queue_size': 5, 'ssl_certificate': '', 'cronjob': False, 'numthreads': None, 'quiet': False, 'interfaces': None, 'minthreads': None, 'timeout': 10, 'plain': False, 'nobanner': False, 'pid_filename': 'httpserver.pid'}>"
p2043
asbasbasbag61
(g77
g63
NtRp2044
(dp2045
g66
(dp2046
sg75
g1954
sg68
(lp2047
g61
(g82
g63
NtRp2048
(dp2049
g66
(dp2050
g86
g87
ssg75
g2044
sg68
(lp2051
g954
asbag61
(g82
g63
NtRp2052
(dp2053
g66
(dp2054
g93
g94
ssg75
g2044
sg68
(lp2055
S':'
asbag61
(g82
g63
NtRp2056
(dp2057
g66
(dp2058
sg75
g2044
sg68
(lp2059
g61
(g62
g63
NtRp2060
(dp2061
g66
(dp2062
g74
I4
ssg75
g2056
sg68
(lp2063
S'set([])'
p2064
asbasbasbag61
(g77
g63
NtRp2065
(dp2066
g66
(dp2067
sg75
g1954
sg68
(lp2068
g61
(g82
g63
NtRp2069
(dp2070
g66
(dp2071
g86
g87
ssg75
g2065
sg68
(lp2072
g976
asbag61
(g82
g63
NtRp2073
(dp2074
g66
(dp2075
g93
g94
ssg75
g2065
sg68
(lp2076
S':'
asbag61
(g82
g63
NtRp2077
(dp2078
g66
(dp2079
sg75
g2065
sg68
(lp2080
g61
(g62
g63
NtRp2081
(dp2082
g66
(dp2083
g74
I4
ssg75
g2077
sg68
(lp2084
g104
asbasbasbag61
(g77
g63
NtRp2085
(dp2086
g66
(dp2087
sg75
g1954
sg68
(lp2088
g61
(g82
g63
NtRp2089
(dp2090
g66
(dp2091
g86
g87
ssg75
g2085
sg68
(lp2092
g997
asbag61
(g82
g63
NtRp2093
(dp2094
g66
(dp2095
g93
g94
ssg75
g2085
sg68
(lp2096
S':'
asbag61
(g82
g63
NtRp2097
(dp2098
g66
(dp2099
sg75
g2085
sg68
(lp2100
g61
(g62
g63
NtRp2101
(dp2102
g66
(dp2103
g74
I4
ssg75
g2097
sg68
(lp2104
g1010
asbasbasbag61
(g77
g63
NtRp2105
(dp2106
g66
(dp2107
sg75
g1954
sg68
(lp2108
g61
(g82
g63
NtRp2109
(dp2110
g66
(dp2111
g86
g87
ssg75
g2105
sg68
(lp2112
g1239
asbag61
(g82
g63
NtRp2113
(dp2114
g66
(dp2115
g93
g94
ssg75
g2105
sg68
(lp2116
S':'
asbag61
(g82
g63
NtRp2117
(dp2118
g66
(dp2119
sg75
g2105
sg68
(lp2120
g61
(g62
g63
NtRp2121
(dp2122
g66
(dp2123
g74
I4
ssg75
g2117
sg68
(lp2124
g104
asbasbasbag61
(g77
g63
NtRp2125
(dp2126
g66
(dp2127
sg75
g1954
sg68
(lp2128
g61
(g82
g63
NtRp2129
(dp2130
g66
(dp2131
g86
g87
ssg75
g2125
sg68
(lp2132
g1260
asbag61
(g82
g63
NtRp2133
(dp2134
g66
(dp2135
g93
g94
ssg75
g2125
sg68
(lp2136
S':'
asbag61
(g82
g63
NtRp2137
(dp2138
g66
(dp2139
sg75
g2125
sg68
(lp2140
g61
(g62
g63
NtRp2141
(dp2142
g66
(dp2143
g74
I4
ssg75
g2137
sg68
(lp2144
g104
asbasbasbag61
(g77
g63
NtRp2145
(dp2146
g66
(dp2147
sg75
g1954
sg68
(lp2148
g61
(g82
g63
NtRp2149
(dp2150
g66
(dp2151
g86
g87
ssg75
g2145
sg68
(lp2152
g1519
asbag61
(g82
g63
NtRp2153
(dp2154
g66
(dp2155
g93
g94
ssg75
g2145
sg68
(lp2156
S':'
asbag61
(g82
g63
NtRp2157
(dp2158
g66
(dp2159
sg75
g2145
sg68
(lp2160
g61
(g62
g63
NtRp2161
(dp2162
g66
(dp2163
g74
I4
ssg75
g2157
sg68
(lp2164
g1532
asbasbasbag61
(g77
g63
NtRp2165
(dp2166
g66
(dp2167
sg75
g1954
sg68
(lp2168
g61
(g82
g63
NtRp2169
(dp2170
g66
(dp2171
g86
g87
ssg75
g2165
sg68
(lp2172
g1562
asbag61
(g82
g63
NtRp2173
(dp2174
g66
(dp2175
g93
g94
ssg75
g2165
sg68
(lp2176
S':'
asbag61
(g82
g63
NtRp2177
(dp2178
g66
(dp2179
sg75
g2165
sg68
(lp2180
g61
(g62
g63
NtRp2181
(dp2182
g66
(dp2183
g74
I4
ssg75
g2177
sg68
(lp2184
g61
(g70
g63
NtRp2185
(dp2186
g66
(dp2187
g74
I3
ssg75
Nsg68
(lp2188
g61
(g77
g63
NtRp2189
(dp2190
g66
(dp2191
sg75
g2185
sg68
(lp2192
g61
(g82
g63
NtRp2193
(dp2194
g66
(dp2195
sg75
g2189
sg68
(lp2196
g61
(g62
g63
NtRp2197
(dp2198
g66
(dp2199
g74
I3
ssg75
g2193
sg68
(lp2200
S'2'
asbasbasbag61
(g77
g63
NtRp2201
(dp2202
g66
(dp2203
sg75
g2185
sg68
(lp2204
g61
(g82
g63
NtRp2205
(dp2206
g66
(dp2207
sg75
g2201
sg68
(lp2208
g61
(g62
g63
NtRp2209
(dp2210
g66
(dp2211
g74
I3
ssg75
g2205
sg68
(lp2212
S'0'
asbasbasbag61
(g77
g63
NtRp2213
(dp2214
g66
(dp2215
sg75
g2185
sg68
(lp2216
g61
(g82
g63
NtRp2217
(dp2218
g66
(dp2219
sg75
g2213
sg68
(lp2220
g61
(g62
g63
NtRp2221
(dp2222
g66
(dp2223
g74
I3
ssg75
g2217
sg68
(lp2224
S'9'
asbasbasbag61
(g77
g63
NtRp2225
(dp2226
g66
(dp2227
sg75
g2185
sg68
(lp2228
g61
(g82
g63
NtRp2229
(dp2230
g66
(dp2231
sg75
g2225
sg68
(lp2232
g61
(g62
g63
NtRp2233
(dp2234
g66
(dp2235
g74
I3
ssg75
g2229
sg68
(lp2236
S'datetime.datetime(2012, 9, 13, 23, 51, 30)'
p2237
asbasbasbag61
(g77
g63
NtRp2238
(dp2239
g66
(dp2240
sg75
g2185
sg68
(lp2241
g61
(g82
g63
NtRp2242
(dp2243
g66
(dp2244
sg75
g2238
sg68
(lp2245
g61
(g62
g63
NtRp2246
(dp2247
g66
(dp2248
g74
I3
ssg75
g2242
sg68
(lp2249
g1640
asbasbasbasbasbasbasbasbasbasbasbag61
(g77
g63
NtRp2250
(dp2251
g66
(dp2252
sg75
g71
sg68
(lp2253
g61
(g82
g63
NtRp2254
(dp2255
g66
(dp2256
g86
g87
ssg75
g2250
sg68
(lp2257
S'is_https'
p2258
asbag61
(g82
g63
NtRp2259
(dp2260
g66
(dp2261
g93
g94
ssg75
g2250
sg68
(lp2262
S':'
asbag61
(g82
g63
NtRp2263
(dp2264
g66
(dp2265
sg75
g2250
sg68
(lp2266
g61
(g62
g63
NtRp2267
(dp2268
g66
(dp2269
g74
I5
ssg75
g2263
sg68
(lp2270
g104
asbasbasbag61
(g77
g63
NtRp2271
(dp2272
g66
(dp2273
sg75
g71
sg68
(lp2274
g61
(g82
g63
NtRp2275
(dp2276
g66
(dp2277
g86
g87
ssg75
g2271
sg68
(lp2278
S'is_local'
p2279
asbag61
(g82
g63
NtRp2280
(dp2281
g66
(dp2282
g93
g94
ssg75
g2271
sg68
(lp2283
S':'
asbag61
(g82
g63
NtRp2284
(dp2285
g66
(dp2286
sg75
g2271
sg68
(lp2287
g61
(g62
g63
NtRp2288
(dp2289
g66
(dp2290
g74
I5
ssg75
g2284
sg68
(lp2291
g1749
asbasbasbag61
(g77
g63
NtRp2292
(dp2293
g66
(dp2294
sg75
g71
sg68
(lp2295
g61
(g82
g63
NtRp2296
(dp2297
g66
(dp2298
g86
g87
ssg75
g2292
sg68
(lp2299
S'is_restful'
p2300
asbag61
(g82
g63
NtRp2301
(dp2302
g66
(dp2303
g93
g94
ssg75
g2292
sg68
(lp2304
S':'
asbag61
(g82
g63
NtRp2305
(dp2306
g66
(dp2307
sg75
g2292
sg68
(lp2308
g61
(g62
g63
NtRp2309
(dp2310
g66
(dp2311
g74
I5
ssg75
g2305
sg68
(lp2312
g104
asbasbasbag61
(g77
g63
NtRp2313
(dp2314
g66
(dp2315
sg75
g71
sg68
(lp2316
g61
(g82
g63
NtRp2317
(dp2318
g66
(dp2319
g86
g87
ssg75
g2313
sg68
(lp2320
S'now'
p2321
asbag61
(g82
g63
NtRp2322
(dp2323
g66
(dp2324
g93
g94
ssg75
g2313
sg68
(lp2325
S':'
asbag61
(g82
g63
NtRp2326
(dp2327
g66
(dp2328
sg75
g2313
sg68
(lp2329
g61
(g62
g63
NtRp2330
(dp2331
g66
(dp2332
g74
I5
ssg75
g2326
sg68
(lp2333
S'datetime.datetime(2012, 9, 30, 1, 22, 35, 551080)'
p2334
asbasbasbag61
(g77
g63
NtRp2335
(dp2336
g66
(dp2337
sg75
g71
sg68
(lp2338
g61
(g82
g63
NtRp2339
(dp2340
g66
(dp2341
g86
g87
ssg75
g2335
sg68
(lp2342
S'post_vars'
p2343
asbag61
(g82
g63
NtRp2344
(dp2345
g66
(dp2346
g93
g94
ssg75
g2335
sg68
(lp2347
S':'
asbag61
(g82
g63
NtRp2348
(dp2349
g66
(dp2350
sg75
g2335
sg68
(lp2351
g61
(g62
g63
NtRp2352
(dp2353
g66
(dp2354
g74
I5
ssg75
g2348
sg68
(lp2355
g61
(g70
g63
NtRp2356
(dp2357
g66
(dp2358
g74
I4
ssg75
Nsg68
(lp2359
sbasbasbasbag61
(g77
g63
NtRp2360
(dp2361
g66
(dp2362
sg75
g71
sg68
(lp2363
g61
(g82
g63
NtRp2364
(dp2365
g66
(dp2366
g86
g87
ssg75
g2360
sg68
(lp2367
S'raw_args'
p2368
asbag61
(g82
g63
NtRp2369
(dp2370
g66
(dp2371
g93
g94
ssg75
g2360
sg68
(lp2372
S':'
asbag61
(g82
g63
NtRp2373
(dp2374
g66
(dp2375
sg75
g2360
sg68
(lp2376
g61
(g62
g63
NtRp2377
(dp2378
g66
(dp2379
g74
I5
ssg75
g2373
sg68
(lp2380
S'None'
p2381
asbasbasbag61
(g77
g63
NtRp2382
(dp2383
g66
(dp2384
sg75
g71
sg68
(lp2385
g61
(g82
g63
NtRp2386
(dp2387
g66
(dp2388
g86
g87
ssg75
g2382
sg68
(lp2389
S'raw_extension'
p2390
asbag61
(g82
g63
NtRp2391
(dp2392
g66
(dp2393
g93
g94
ssg75
g2382
sg68
(lp2394
S':'
asbag61
(g82
g63
NtRp2395
(dp2396
g66
(dp2397
sg75
g2382
sg68
(lp2398
g61
(g62
g63
NtRp2399
(dp2400
g66
(dp2401
g74
I5
ssg75
g2395
sg68
(lp2402
S'None'
p2403
asbasbasbag61
(g77
g63
NtRp2404
(dp2405
g66
(dp2406
sg75
g71
sg68
(lp2407
g61
(g82
g63
NtRp2408
(dp2409
g66
(dp2410
g86
g87
ssg75
g2404
sg68
(lp2411
S'url'
p2412
asbag61
(g82
g63
NtRp2413
(dp2414
g66
(dp2415
g93
g94
ssg75
g2404
sg68
(lp2416
S':'
asbag61
(g82
g63
NtRp2417
(dp2418
g66
(dp2419
sg75
g2404
sg68
(lp2420
g61
(g62
g63
NtRp2421
(dp2422
g66
(dp2423
g74
I5
ssg75
g2417
sg68
(lp2424
g1294
asbasbasbag61
(g77
g63
NtRp2425
(dp2426
g66
(dp2427
sg75
g71
sg68
(lp2428
g61
(g82
g63
NtRp2429
(dp2430
g66
(dp2431
g86
g87
ssg75
g2425
sg68
(lp2432
S'utcnow'
p2433
asbag61
(g82
g63
NtRp2434
(dp2435
g66
(dp2436
g93
g94
ssg75
g2425
sg68
(lp2437
S':'
asbag61
(g82
g63
NtRp2438
(dp2439
g66
(dp2440
sg75
g2425
sg68
(lp2441
g61
(g62
g63
NtRp2442
(dp2443
g66
(dp2444
g74
I5
ssg75
g2438
sg68
(lp2445
S'datetime.datetime(2012, 9, 30, 4, 22, 35, 551089)'
p2446
asbasbasbag61
(g77
g63
NtRp2447
(dp2448
g66
(dp2449
sg75
g71
sg68
(lp2450
g61
(g82
g63
NtRp2451
(dp2452
g66
(dp2453
g86
g87
ssg75
g2447
sg68
(lp2454
S'uuid'
p2455
asbag61
(g82
g63
NtRp2456
(dp2457
g66
(dp2458
g93
g94
ssg75
g2447
sg68
(lp2459
S':'
asbag61
(g82
g63
NtRp2460
(dp2461
g66
(dp2462
sg75
g2447
sg68
(lp2463
g61
(g62
g63
NtRp2464
(dp2465
g66
(dp2466
g74
I5
ssg75
g2460
sg68
(lp2467
S'exemplo_validators/127.0.0.1.2012-09-30.01-22-35.2ca6661a-98ad-4ea4-9131-c05811b0786c'
p2468
asbasbasbag61
(g77
g63
NtRp2469
(dp2470
g66
(dp2471
sg75
g71
sg68
(lp2472
g61
(g82
g63
NtRp2473
(dp2474
g66
(dp2475
g86
g87
ssg75
g2469
sg68
(lp2476
S'vars'
p2477
asbag61
(g82
g63
NtRp2478
(dp2479
g66
(dp2480
g93
g94
ssg75
g2469
sg68
(lp2481
S':'
asbag61
(g82
g63
NtRp2482
(dp2483
g66
(dp2484
sg75
g2469
sg68
(lp2485
g61
(g62
g63
NtRp2486
(dp2487
g66
(dp2488
g74
I5
ssg75
g2482
sg68
(lp2489
g61
(g70
g63
NtRp2490
(dp2491
g66
(dp2492
g74
I4
ssg75
Nsg68
(lp2493
sbasbasbasbag61
(g77
g63
NtRp2494
(dp2495
g66
(dp2496
sg75
g71
sg68
(lp2497
g61
(g82
g63
NtRp2498
(dp2499
g66
(dp2500
g86
g87
ssg75
g2494
sg68
(lp2501
S'wsgi'
p2502
asbag61
(g82
g63
NtRp2503
(dp2504
g66
(dp2505
g93
g94
ssg75
g2494
sg68
(lp2506
S':'
asbag61
(g82
g63
NtRp2507
(dp2508
g66
(dp2509
sg75
g2494
sg68
(lp2510
g61
(g62
g63
NtRp2511
(dp2512
g66
(dp2513
g74
I5
ssg75
g2507
sg68
(lp2514
g61
(g70
g63
NtRp2515
(dp2516
g66
(dp2517
g74
I4
ssg75
Nsg68
(lp2518
g61
(g77
g63
NtRp2519
(dp2520
g66
(dp2521
sg75
g2515
sg68
(lp2522
g61
(g82
g63
NtRp2523
(dp2524
g66
(dp2525
g86
g87
ssg75
g2519
sg68
(lp2526
S'environ'
p2527
asbag61
(g82
g63
NtRp2528
(dp2529
g66
(dp2530
g93
g94
ssg75
g2519
sg68
(lp2531
S':'
asbag61
(g82
g63
NtRp2532
(dp2533
g66
(dp2534
sg75
g2519
sg68
(lp2535
g61
(g62
g63
NtRp2536
(dp2537
g66
(dp2538
g74
I4
ssg75
g2532
sg68
(lp2539
g61
(g70
g63
NtRp2540
(dp2541
g66
(dp2542
g74
I3
ssg75
Nsg68
(lp2543
g61
(g77
g63
NtRp2544
(dp2545
g66
(dp2546
sg75
g2540
sg68
(lp2547
g61
(g82
g63
NtRp2548
(dp2549
g66
(dp2550
g86
g87
ssg75
g2544
sg68
(lp2551
S'HTTP_ACCEPT'
p2552
asbag61
(g82
g63
NtRp2553
(dp2554
g66
(dp2555
g93
g94
ssg75
g2544
sg68
(lp2556
S':'
asbag61
(g82
g63
NtRp2557
(dp2558
g66
(dp2559
sg75
g2544
sg68
(lp2560
g61
(g62
g63
NtRp2561
(dp2562
g66
(dp2563
g74
I3
ssg75
g2557
sg68
(lp2564
g1032
asbasbasbag61
(g77
g63
NtRp2565
(dp2566
g66
(dp2567
sg75
g2540
sg68
(lp2568
g61
(g82
g63
NtRp2569
(dp2570
g66
(dp2571
g86
g87
ssg75
g2565
sg68
(lp2572
S'HTTP_ACCEPT_CHARSET'
p2573
asbag61
(g82
g63
NtRp2574
(dp2575
g66
(dp2576
g93
g94
ssg75
g2565
sg68
(lp2577
S':'
asbag61
(g82
g63
NtRp2578
(dp2579
g66
(dp2580
sg75
g2565
sg68
(lp2581
g61
(g62
g63
NtRp2582
(dp2583
g66
(dp2584
g74
I3
ssg75
g2578
sg68
(lp2585
g1054
asbasbasbag61
(g77
g63
NtRp2586
(dp2587
g66
(dp2588
sg75
g2540
sg68
(lp2589
g61
(g82
g63
NtRp2590
(dp2591
g66
(dp2592
g86
g87
ssg75
g2586
sg68
(lp2593
S'HTTP_ACCEPT_ENCODING'
p2594
asbag61
(g82
g63
NtRp2595
(dp2596
g66
(dp2597
g93
g94
ssg75
g2586
sg68
(lp2598
S':'
asbag61
(g82
g63
NtRp2599
(dp2600
g66
(dp2601
sg75
g2586
sg68
(lp2602
g61
(g62
g63
NtRp2603
(dp2604
g66
(dp2605
g74
I3
ssg75
g2599
sg68
(lp2606
g1076
asbasbasbag61
(g77
g63
NtRp2607
(dp2608
g66
(dp2609
sg75
g2540
sg68
(lp2610
g61
(g82
g63
NtRp2611
(dp2612
g66
(dp2613
g86
g87
ssg75
g2607
sg68
(lp2614
S'HTTP_ACCEPT_LANGUAGE'
p2615
asbag61
(g82
g63
NtRp2616
(dp2617
g66
(dp2618
g93
g94
ssg75
g2607
sg68
(lp2619
S':'
asbag61
(g82
g63
NtRp2620
(dp2621
g66
(dp2622
sg75
g2607
sg68
(lp2623
g61
(g62
g63
NtRp2624
(dp2625
g66
(dp2626
g74
I3
ssg75
g2620
sg68
(lp2627
g1098
asbasbasbag61
(g77
g63
NtRp2628
(dp2629
g66
(dp2630
sg75
g2540
sg68
(lp2631
g61
(g82
g63
NtRp2632
(dp2633
g66
(dp2634
g86
g87
ssg75
g2628
sg68
(lp2635
S'HTTP_CACHE_CONTROL'
p2636
asbag61
(g82
g63
NtRp2637
(dp2638
g66
(dp2639
g93
g94
ssg75
g2628
sg68
(lp2640
S':'
asbag61
(g82
g63
NtRp2641
(dp2642
g66
(dp2643
sg75
g2628
sg68
(lp2644
g61
(g62
g63
NtRp2645
(dp2646
g66
(dp2647
g74
I3
ssg75
g2641
sg68
(lp2648
g1120
asbasbasbag61
(g77
g63
NtRp2649
(dp2650
g66
(dp2651
sg75
g2540
sg68
(lp2652
g61
(g82
g63
NtRp2653
(dp2654
g66
(dp2655
g86
g87
ssg75
g2649
sg68
(lp2656
S'HTTP_CONNECTION'
p2657
asbag61
(g82
g63
NtRp2658
(dp2659
g66
(dp2660
g93
g94
ssg75
g2649
sg68
(lp2661
S':'
asbag61
(g82
g63
NtRp2662
(dp2663
g66
(dp2664
sg75
g2649
sg68
(lp2665
g61
(g62
g63
NtRp2666
(dp2667
g66
(dp2668
g74
I3
ssg75
g2662
sg68
(lp2669
g1142
asbasbasbag61
(g77
g63
NtRp2670
(dp2671
g66
(dp2672
sg75
g2540
sg68
(lp2673
g61
(g82
g63
NtRp2674
(dp2675
g66
(dp2676
g86
g87
ssg75
g2670
sg68
(lp2677
S'HTTP_COOKIE'
p2678
asbag61
(g82
g63
NtRp2679
(dp2680
g66
(dp2681
g93
g94
ssg75
g2670
sg68
(lp2682
S':'
asbag61
(g82
g63
NtRp2683
(dp2684
g66
(dp2685
sg75
g2670
sg68
(lp2686
g61
(g62
g63
NtRp2687
(dp2688
g66
(dp2689
g74
I3
ssg75
g2683
sg68
(lp2690
g1164
asbasbasbag61
(g77
g63
NtRp2691
(dp2692
g66
(dp2693
sg75
g2540
sg68
(lp2694
g61
(g82
g63
NtRp2695
(dp2696
g66
(dp2697
g86
g87
ssg75
g2691
sg68
(lp2698
S'HTTP_HOST'
p2699
asbag61
(g82
g63
NtRp2700
(dp2701
g66
(dp2702
g93
g94
ssg75
g2691
sg68
(lp2703
S':'
asbag61
(g82
g63
NtRp2704
(dp2705
g66
(dp2706
sg75
g2691
sg68
(lp2707
g61
(g62
g63
NtRp2708
(dp2709
g66
(dp2710
g74
I3
ssg75
g2704
sg68
(lp2711
g1186
asbasbasbag61
(g77
g63
NtRp2712
(dp2713
g66
(dp2714
sg75
g2540
sg68
(lp2715
g61
(g82
g63
NtRp2716
(dp2717
g66
(dp2718
g86
g87
ssg75
g2712
sg68
(lp2719
S'HTTP_REFERER'
p2720
asbag61
(g82
g63
NtRp2721
(dp2722
g66
(dp2723
g93
g94
ssg75
g2712
sg68
(lp2724
S':'
asbag61
(g82
g63
NtRp2725
(dp2726
g66
(dp2727
sg75
g2712
sg68
(lp2728
g61
(g62
g63
NtRp2729
(dp2730
g66
(dp2731
g74
I3
ssg75
g2725
sg68
(lp2732
g1208
asbasbasbag61
(g77
g63
NtRp2733
(dp2734
g66
(dp2735
sg75
g2540
sg68
(lp2736
g61
(g82
g63
NtRp2737
(dp2738
g66
(dp2739
g86
g87
ssg75
g2733
sg68
(lp2740
S'HTTP_USER_AGENT'
p2741
asbag61
(g82
g63
NtRp2742
(dp2743
g66
(dp2744
g93
g94
ssg75
g2733
sg68
(lp2745
S':'
asbag61
(g82
g63
NtRp2746
(dp2747
g66
(dp2748
sg75
g2733
sg68
(lp2749
g61
(g62
g63
NtRp2750
(dp2751
g66
(dp2752
g74
I3
ssg75
g2746
sg68
(lp2753
g1230
asbasbasbag61
(g77
g63
NtRp2754
(dp2755
g66
(dp2756
sg75
g2540
sg68
(lp2757
g61
(g82
g63
NtRp2758
(dp2759
g66
(dp2760
g86
g87
ssg75
g2754
sg68
(lp2761
S'PATH_INFO'
p2762
asbag61
(g82
g63
NtRp2763
(dp2764
g66
(dp2765
g93
g94
ssg75
g2754
sg68
(lp2766
S':'
asbag61
(g82
g63
NtRp2767
(dp2768
g66
(dp2769
sg75
g2754
sg68
(lp2770
g61
(g62
g63
NtRp2771
(dp2772
g66
(dp2773
g74
I3
ssg75
g2767
sg68
(lp2774
g1294
asbasbasbag61
(g77
g63
NtRp2775
(dp2776
g66
(dp2777
sg75
g2540
sg68
(lp2778
g61
(g82
g63
NtRp2779
(dp2780
g66
(dp2781
g86
g87
ssg75
g2775
sg68
(lp2782
S'QUERY_STRING'
p2783
asbag61
(g82
g63
NtRp2784
(dp2785
g66
(dp2786
g93
g94
ssg75
g2775
sg68
(lp2787
S':'
asbag61
(g82
g63
NtRp2788
(dp2789
g66
(dp2790
sg75
g2775
sg68
(lp2791
g61
(g62
g63
NtRp2792
(dp2793
g66
(dp2794
g74
I3
ssg75
g2788
sg68
(lp2795
S''
asbasbasbag61
(g77
g63
NtRp2796
(dp2797
g66
(dp2798
sg75
g2540
sg68
(lp2799
g61
(g82
g63
NtRp2800
(dp2801
g66
(dp2802
g86
g87
ssg75
g2796
sg68
(lp2803
S'REMOTE_ADDR'
p2804
asbag61
(g82
g63
NtRp2805
(dp2806
g66
(dp2807
g93
g94
ssg75
g2796
sg68
(lp2808
S':'
asbag61
(g82
g63
NtRp2809
(dp2810
g66
(dp2811
sg75
g2796
sg68
(lp2812
g61
(g62
g63
NtRp2813
(dp2814
g66
(dp2815
g74
I3
ssg75
g2809
sg68
(lp2816
g216
asbasbasbag61
(g77
g63
NtRp2817
(dp2818
g66
(dp2819
sg75
g2540
sg68
(lp2820
g61
(g82
g63
NtRp2821
(dp2822
g66
(dp2823
g86
g87
ssg75
g2817
sg68
(lp2824
S'REMOTE_PORT'
p2825
asbag61
(g82
g63
NtRp2826
(dp2827
g66
(dp2828
g93
g94
ssg75
g2817
sg68
(lp2829
S':'
asbag61
(g82
g63
NtRp2830
(dp2831
g66
(dp2832
sg75
g2817
sg68
(lp2833
g61
(g62
g63
NtRp2834
(dp2835
g66
(dp2836
g74
I3
ssg75
g2830
sg68
(lp2837
g1358
asbasbasbag61
(g77
g63
NtRp2838
(dp2839
g66
(dp2840
sg75
g2540
sg68
(lp2841
g61
(g82
g63
NtRp2842
(dp2843
g66
(dp2844
g86
g87
ssg75
g2838
sg68
(lp2845
S'REQUEST_METHOD'
p2846
asbag61
(g82
g63
NtRp2847
(dp2848
g66
(dp2849
g93
g94
ssg75
g2838
sg68
(lp2850
S':'
asbag61
(g82
g63
NtRp2851
(dp2852
g66
(dp2853
sg75
g2838
sg68
(lp2854
g61
(g62
g63
NtRp2855
(dp2856
g66
(dp2857
g74
I3
ssg75
g2851
sg68
(lp2858
g1380
asbasbasbag61
(g77
g63
NtRp2859
(dp2860
g66
(dp2861
sg75
g2540
sg68
(lp2862
g61
(g82
g63
NtRp2863
(dp2864
g66
(dp2865
g86
g87
ssg75
g2859
sg68
(lp2866
S'REQUEST_URI'
p2867
asbag61
(g82
g63
NtRp2868
(dp2869
g66
(dp2870
g93
g94
ssg75
g2859
sg68
(lp2871
S':'
asbag61
(g82
g63
NtRp2872
(dp2873
g66
(dp2874
sg75
g2859
sg68
(lp2875
g61
(g62
g63
NtRp2876
(dp2877
g66
(dp2878
g74
I3
ssg75
g2872
sg68
(lp2879
g1294
asbasbasbag61
(g77
g63
NtRp2880
(dp2881
g66
(dp2882
sg75
g2540
sg68
(lp2883
g61
(g82
g63
NtRp2884
(dp2885
g66
(dp2886
g86
g87
ssg75
g2880
sg68
(lp2887
S'SCRIPT_NAME'
p2888
asbag61
(g82
g63
NtRp2889
(dp2890
g66
(dp2891
g93
g94
ssg75
g2880
sg68
(lp2892
S':'
asbag61
(g82
g63
NtRp2893
(dp2894
g66
(dp2895
sg75
g2880
sg68
(lp2896
g61
(g62
g63
NtRp2897
(dp2898
g66
(dp2899
g74
I3
ssg75
g2893
sg68
(lp2900
S''
asbasbasbag61
(g77
g63
NtRp2901
(dp2902
g66
(dp2903
sg75
g2540
sg68
(lp2904
g61
(g82
g63
NtRp2905
(dp2906
g66
(dp2907
g86
g87
ssg75
g2901
sg68
(lp2908
S'SERVER_NAME'
p2909
asbag61
(g82
g63
NtRp2910
(dp2911
g66
(dp2912
g93
g94
ssg75
g2901
sg68
(lp2913
S':'
asbag61
(g82
g63
NtRp2914
(dp2915
g66
(dp2916
sg75
g2901
sg68
(lp2917
g61
(g62
g63
NtRp2918
(dp2919
g66
(dp2920
g74
I3
ssg75
g2914
sg68
(lp2921
g1444
asbasbasbag61
(g77
g63
NtRp2922
(dp2923
g66
(dp2924
sg75
g2540
sg68
(lp2925
g61
(g82
g63
NtRp2926
(dp2927
g66
(dp2928
g86
g87
ssg75
g2922
sg68
(lp2929
S'SERVER_PORT'
p2930
asbag61
(g82
g63
NtRp2931
(dp2932
g66
(dp2933
g93
g94
ssg75
g2922
sg68
(lp2934
S':'
asbag61
(g82
g63
NtRp2935
(dp2936
g66
(dp2937
sg75
g2922
sg68
(lp2938
g61
(g62
g63
NtRp2939
(dp2940
g66
(dp2941
g74
I3
ssg75
g2935
sg68
(lp2942
g1466
asbasbasbag61
(g77
g63
NtRp2943
(dp2944
g66
(dp2945
sg75
g2540
sg68
(lp2946
g61
(g82
g63
NtRp2947
(dp2948
g66
(dp2949
g86
g87
ssg75
g2943
sg68
(lp2950
S'SERVER_PROTOCOL'
p2951
asbag61
(g82
g63
NtRp2952
(dp2953
g66
(dp2954
g93
g94
ssg75
g2943
sg68
(lp2955
S':'
asbag61
(g82
g63
NtRp2956
(dp2957
g66
(dp2958
sg75
g2943
sg68
(lp2959
g61
(g62
g63
NtRp2960
(dp2961
g66
(dp2962
g74
I3
ssg75
g2956
sg68
(lp2963
g1488
asbasbasbag61
(g77
g63
NtRp2964
(dp2965
g66
(dp2966
sg75
g2540
sg68
(lp2967
g61
(g82
g63
NtRp2968
(dp2969
g66
(dp2970
g86
g87
ssg75
g2964
sg68
(lp2971
S'SERVER_SOFTWARE'
p2972
asbag61
(g82
g63
NtRp2973
(dp2974
g66
(dp2975
g93
g94
ssg75
g2964
sg68
(lp2976
S':'
asbag61
(g82
g63
NtRp2977
(dp2978
g66
(dp2979
sg75
g2964
sg68
(lp2980
g61
(g62
g63
NtRp2981
(dp2982
g66
(dp2983
g74
I3
ssg75
g2977
sg68
(lp2984
g1510
asbasbasbag61
(g77
g63
NtRp2985
(dp2986
g66
(dp2987
sg75
g2540
sg68
(lp2988
g61
(g82
g63
NtRp2989
(dp2990
g66
(dp2991
g86
g87
ssg75
g2985
sg68
(lp2992
S'wsgi.errors'
p2993
asbag61
(g82
g63
NtRp2994
(dp2995
g66
(dp2996
g93
g94
ssg75
g2985
sg68
(lp2997
S':'
asbag61
(g82
g63
NtRp2998
(dp2999
g66
(dp3000
sg75
g2985
sg68
(lp3001
g61
(g62
g63
NtRp3002
(dp3003
g66
(dp3004
g74
I3
ssg75
g2998
sg68
(lp3005
S"<open file '<stderr>', mode 'w' at 0x101caa270>"
p3006
asbasbasbag61
(g77
g63
NtRp3007
(dp3008
g66
(dp3009
sg75
g2540
sg68
(lp3010
g61
(g82
g63
NtRp3011
(dp3012
g66
(dp3013
g86
g87
ssg75
g3007
sg68
(lp3014
S'wsgi.file_wrapper'
p3015
asbag61
(g82
g63
NtRp3016
(dp3017
g66
(dp3018
g93
g94
ssg75
g3007
sg68
(lp3019
S':'
asbag61
(g82
g63
NtRp3020
(dp3021
g66
(dp3022
sg75
g3007
sg68
(lp3023
g61
(g62
g63
NtRp3024
(dp3025
g66
(dp3026
g74
I3
ssg75
g3020
sg68
(lp3027
S'<class wsgiref.util.FileWrapper at 0x1026a5050>'
p3028
asbasbasbag61
(g77
g63
NtRp3029
(dp3030
g66
(dp3031
sg75
g2540
sg68
(lp3032
g61
(g82
g63
NtRp3033
(dp3034
g66
(dp3035
g86
g87
ssg75
g3029
sg68
(lp3036
S'wsgi.input'
p3037
asbag61
(g82
g63
NtRp3038
(dp3039
g66
(dp3040
g93
g94
ssg75
g3029
sg68
(lp3041
S':'
asbag61
(g82
g63
NtRp3042
(dp3043
g66
(dp3044
sg75
g3029
sg68
(lp3045
g61
(g62
g63
NtRp3046
(dp3047
g66
(dp3048
g74
I3
ssg75
g3042
sg68
(lp3049
S'<cStringIO.StringO object at 0x107a5f880>'
p3050
asbasbasbag61
(g77
g63
NtRp3051
(dp3052
g66
(dp3053
sg75
g2540
sg68
(lp3054
g61
(g82
g63
NtRp3055
(dp3056
g66
(dp3057
g86
g87
ssg75
g3051
sg68
(lp3058
S'wsgi.multiprocess'
p3059
asbag61
(g82
g63
NtRp3060
(dp3061
g66
(dp3062
g93
g94
ssg75
g3051
sg68
(lp3063
S':'
asbag61
(g82
g63
NtRp3064
(dp3065
g66
(dp3066
sg75
g3051
sg68
(lp3067
g61
(g62
g63
NtRp3068
(dp3069
g66
(dp3070
g74
I3
ssg75
g3064
sg68
(lp3071
g104
asbasbasbag61
(g77
g63
NtRp3072
(dp3073
g66
(dp3074
sg75
g2540
sg68
(lp3075
g61
(g82
g63
NtRp3076
(dp3077
g66
(dp3078
g86
g87
ssg75
g3072
sg68
(lp3079
S'wsgi.multithread'
p3080
asbag61
(g82
g63
NtRp3081
(dp3082
g66
(dp3083
g93
g94
ssg75
g3072
sg68
(lp3084
S':'
asbag61
(g82
g63
NtRp3085
(dp3086
g66
(dp3087
sg75
g3072
sg68
(lp3088
g61
(g62
g63
NtRp3089
(dp3090
g66
(dp3091
g74
I3
ssg75
g3085
sg68
(lp3092
g1749
asbasbasbag61
(g77
g63
NtRp3093
(dp3094
g66
(dp3095
sg75
g2540
sg68
(lp3096
g61
(g82
g63
NtRp3097
(dp3098
g66
(dp3099
g86
g87
ssg75
g3093
sg68
(lp3100
S'wsgi.run_once'
p3101
asbag61
(g82
g63
NtRp3102
(dp3103
g66
(dp3104
g93
g94
ssg75
g3093
sg68
(lp3105
S':'
asbag61
(g82
g63
NtRp3106
(dp3107
g66
(dp3108
sg75
g3093
sg68
(lp3109
g61
(g62
g63
NtRp3110
(dp3111
g66
(dp3112
g74
I3
ssg75
g3106
sg68
(lp3113
g104
asbasbasbag61
(g77
g63
NtRp3114
(dp3115
g66
(dp3116
sg75
g2540
sg68
(lp3117
g61
(g82
g63
NtRp3118
(dp3119
g66
(dp3120
g86
g87
ssg75
g3114
sg68
(lp3121
S'wsgi.url_scheme'
p3122
asbag61
(g82
g63
NtRp3123
(dp3124
g66
(dp3125
g93
g94
ssg75
g3114
sg68
(lp3126
S':'
asbag61
(g82
g63
NtRp3127
(dp3128
g66
(dp3129
sg75
g3114
sg68
(lp3130
g61
(g62
g63
NtRp3131
(dp3132
g66
(dp3133
g74
I3
ssg75
g3127
sg68
(lp3134
g1792
asbasbasbag61
(g77
g63
NtRp3135
(dp3136
g66
(dp3137
sg75
g2540
sg68
(lp3138
g61
(g82
g63
NtRp3139
(dp3140
g66
(dp3141
g86
g87
ssg75
g3135
sg68
(lp3142
S'wsgi.version'
p3143
asbag61
(g82
g63
NtRp3144
(dp3145
g66
(dp3146
g93
g94
ssg75
g3135
sg68
(lp3147
S':'
asbag61
(g82
g63
NtRp3148
(dp3149
g66
(dp3150
sg75
g3135
sg68
(lp3151
g61
(g62
g63
NtRp3152
(dp3153
g66
(dp3154
g74
I3
ssg75
g3148
sg68
(lp3155
S'1'
asbasbasbasbasbasbasbasbasbasbasbasbasbsS'frames'
p3156
(lp3157
(dp3158
S'file'
p3159
S'/Users/logan/Documents/web2py/gluon/restricted.py'
p3160
sS'dump'
p3161
(dp3162
S'environment'
p3163
S"{'A': <class 'gluon.html.A'>, 'Auth': <class 'gluon.tools.Auth'>, 'B': <class 'gluon.html.B'>, 'BEAUTIFY': <class 'gluon.html.BEAUTIFY'>, 'BODY': <class 'gluon.html.BODY'>, 'BR': <class 'gluon.html.BR'>, 'BUTTON': <class 'gluon.html.BUTTON'>, 'CAT': <class 'gluon.html.CAT'>, 'CENTER': <class 'gluon.html.CENTER'>, 'CLEANUP': <class 'gluon.validators.CLEANUP'>, ...}"
p3164
sS'ccode'
p3165
S'<code object <module> at 0x1079466b0, file "/Use..._validators/controllers/funcionarios.py", line 3>'
p3166
ssS'lnum'
p3167
I209
sS'lines'
p3168
(dp3169
I204
S'    try:'
p3170
sI205
S'        if type(code) == types.CodeType:'
p3171
sI206
S'            ccode = code'
p3172
sI207
S'        else:'
p3173
sI208
S'            ccode = compile2(code,layer)'
p3174
sI209
S'        exec ccode in environment'
p3175
sI210
S'    except HTTP:'
p3176
sI211
S'        raise'
p3177
sI212
S'    except RestrictedError:'
p3178
sI213
S'        # do not encapsulate (obfuscate) the original RestrictedError'
p3179
ssS'call'
p3180
S'(code="# coding: utf8\\n# try something like\\ndef index():...,\'novo\'))\\n\\nresponse._vars=response._caller(novo)\\n", environment={\'A\': <class \'gluon.html.A\'>, \'Auth\': <class \'gluon.tools.Auth\'>, \'B\': <class \'gluon.html.B\'>, \'BEAUTIFY\': <class \'gluon.html.BEAUTIFY\'>, \'BODY\': <class \'gluon.html.BODY\'>, \'BR\': <class \'gluon.html.BR\'>, \'BUTTON\': <class \'gluon.html.BUTTON\'>, \'CAT\': <class \'gluon.html.CAT\'>, \'CENTER\': <class \'gluon.html.CENTER\'>, \'CLEANUP\': <class \'gluon.validators.CLEANUP\'>, ...}, layer=\'/Users/logan/Documents/web2py/applications/exemplo_validators/controllers/funcionarios.py\')'
p3181
sS'func'
p3182
S'restricted'
p3183
sa(dp3184
g3159
S'/Users/logan/Documents/web2py/applications/exemplo_validators/controllers/funcionarios.py'
p3185
sg3161
(dp3186
sg3167
I21
sg3168
(dp3187
I10
S'    empresa_has_errors  = db.empresas._validate(**empresa)'
p3188
sI11
S'    funcionario_has_errors = db.funcionarios._validate(**funcionario)'
p3189
sI12
S'    if not empresa_has_errors and not funcionario_has_errors:'
p3190
sI13
S'        id_empresa = db.empresas.insert(**empresa)'
p3191
sI14
S'        funcionario["empresa"] = id_empresa'
p3192
sI15
S'        db.funcionarios.insert(**funcionario)'
p3193
sI16
S"        response.flash = 'dados salvos com sucesso!'"
p3194
sI17
S'    else:'
p3195
sI18
S"        response.flash = 'ops, por favor verifique seus dados!'"
p3196
sI19
S"    redirect(URL('funcionarios','novo'))"
p3197
ssg3180
S'()'
p3198
sg3182
S'<module>'
p3199
sa(dp3200
g3159
S'/Users/logan/Documents/web2py/gluon/globals.py'
p3201
sg3161
(dp3202
S'self'
p3203
S'undefined'
p3204
sS'f'
S'<function novo>'
p3205
ssg3167
I186
sg3168
(dp3206
I181
S'        self.menu = []             # used by the default view layout'
p3207
sI182
S'        self.files = []            # used by web2py_ajax.html'
p3208
sI183
S'        self.generic_patterns = [] # patterns to allow generic views'
p3209
sI184
S"        self.delimiters = ('{{','}}')"
p3210
sI185
S'        self._vars = None'
p3211
sI186
S'        self._caller = lambda f: f()'
p3212
sI187
S'        self._view_environment = None'
p3213
sI188
S'        self._custom_commit = None'
p3214
sI189
S'        self._custom_rollback = None'
p3215
sI190
S''
ssg3180
S'(f=<function novo>)'
p3216
sg3182
S'<lambda>'
p3217
sa(dp3218
g3159
S'/Users/logan/Documents/web2py/applications/exemplo_validators/controllers/funcionarios.py'
p3219
sg3161
(dp3220
S'global db'
p3221
S'<DAL sqlite://storage.sqlite>'
p3222
sS'id_empresa'
p3223
g3204
sS'db.empresas.insert'
p3224
S'<bound method Table.insert of <Table empresas (id,nome_da_empresa)>>'
p3225
sS'db.empresas'
p3226
S'<Table empresas (id,nome_da_empresa)>'
p3227
sS'empresa'
p3228
g21
ssg3167
I13
sg3168
(dp3229
I8
S'    empresa = db.empresas._filter_fields(request.post_vars)'
p3230
sI9
S'    funcionario = db.funcionarios._filter_fields(request.post_vars)'
p3231
sI10
S'    empresa_has_errors  = db.empresas._validate(**empresa)'
p3232
sI11
S'    funcionario_has_errors = db.funcionarios._validate(**funcionario)'
p3233
sI12
S'    if not empresa_has_errors and not funcionario_has_errors:'
p3234
sI13
S'        id_empresa = db.empresas.insert(**empresa)'
p3235
sI14
S'        funcionario["empresa"] = id_empresa'
p3236
sI15
S'        db.funcionarios.insert(**funcionario)'
p3237
sI16
S"        response.flash = 'dados salvos com sucesso!'"
p3238
sI17
S'    else:'
p3239
ssg3180
S'()'
p3240
sg3182
S'novo'
p3241
sa(dp3242
g3159
S'/Users/logan/Documents/web2py/gluon/dal.py'
p3243
sg3161
(dp3244
S'self._listify'
p3245
S'<bound method Table._listify of <Table empresas (id,nome_da_empresa)>>'
p3246
sS'fields'
p3247
g21
sS'self'
p3248
S'<Table empresas (id,nome_da_empresa)>'
p3249
sS'ret'
p3250
g3204
sS'self._db._adapter'
p3251
S'<gluon.dal.SQLiteAdapter object>'
p3252
sS'self._db._adapter.insert'
p3253
S'<bound method SQLiteAdapter.insert of <gluon.dal.SQLiteAdapter object>>'
p3254
sS'self._db'
p3255
S'<DAL sqlite://storage.sqlite>'
p3256
ssg3167
I7793
sg3168
(dp3257
I7788
S'        return self._db._adapter._insert(self,self._listify(fields))'
p3258
sI7789
S''
sI7790
S'    def insert(self, **fields):'
p3259
sI7791
S'        self._attempt_upload(fields)'
p3260
sI7792
S'        if any(f(fields) for f in self._before_insert): return 0'
p3261
sI7793
S'        ret =  self._db._adapter.insert(self,self._listify(fields))'
p3262
sI7794
S'        if ret and self._after_insert:'
p3263
sI7795
S'            fields = Row(fields)'
p3264
sI7796
S'            [f(fields,ret) for f in self._after_insert]'
p3265
sI7797
S'        return ret'
p3266
ssg3180
S'(self=<Table empresas (id,nome_da_empresa)>, **fields={})'
p3267
sg3182
S'insert'
p3268
sa(dp3269
g3159
S'/Users/logan/Documents/web2py/gluon/dal.py'
p3270
sg3161
(dp3271
S'e'
S'OperationalError(\'near ")": syntax error\',)'
p3272
ssg3167
I1142
sg3168
(dp3273
I1137
S'        try:'
p3274
sI1138
S'            self.execute(query)'
p3275
sI1139
S'        except Exception, e:'
p3276
sI1140
S'            if isinstance(e,self.integrity_error_class()):'
p3277
sI1141
S'                return None'
p3278
sI1142
S'            raise e'
p3279
sI1143
S"        if hasattr(table,'_primarykey'):"
p3280
sI1144
S'            return dict([(k[0].name, k[1]) for k in fields \\'
p3281
sI1145
S'                             if k[0].name in table._primarykey])'
p3282
sI1146
S'        id = self.lastrowid(table)'
p3283
ssg3180
S'(self=<gluon.dal.SQLiteAdapter object>, table=<Table empresas (id,nome_da_empresa)>, fields=[])'
p3284
sg3182
g3268
sasS'pyver'
p3285
S'Python 2.7.2: /usr/bin/python'
p3286
sS'session'
p3287
g61
(g62
g63
NtRp3288
(dp3289
g66
(dp3290
sg68
(lp3291
g61
(g70
g63
NtRp3292
(dp3293
g66
(dp3294
g74
I5
ssg75
Nsg68
(lp3295
g61
(g77
g63
NtRp3296
(dp3297
g66
(dp3298
sg75
g3292
sg68
(lp3299
g61
(g82
g63
NtRp3300
(dp3301
g66
(dp3302
g86
g87
ssg75
g3296
sg68
(lp3303
S'auth'
p3304
asbag61
(g82
g63
NtRp3305
(dp3306
g66
(dp3307
g93
g94
ssg75
g3296
sg68
(lp3308
S':'
asbag61
(g82
g63
NtRp3309
(dp3310
g66
(dp3311
sg75
g3296
sg68
(lp3312
g61
(g62
g63
NtRp3313
(dp3314
g66
(dp3315
g74
I5
ssg75
g3309
sg68
(lp3316
S'None'
p3317
asbasbasbag61
(g77
g63
NtRp3318
(dp3319
g66
(dp3320
sg75
g3292
sg68
(lp3321
g61
(g82
g63
NtRp3322
(dp3323
g66
(dp3324
g86
g87
ssg75
g3318
sg68
(lp3325
S'last_orderby'
p3326
asbag61
(g82
g63
NtRp3327
(dp3328
g66
(dp3329
g93
g94
ssg75
g3318
sg68
(lp3330
S':'
asbag61
(g82
g63
NtRp3331
(dp3332
g66
(dp3333
sg75
g3318
sg68
(lp3334
g61
(g62
g63
NtRp3335
(dp3336
g66
(dp3337
g74
I5
ssg75
g3331
sg68
(lp3338
S'None'
p3339
asbasbasbag61
(g77
g63
NtRp3340
(dp3341
g66
(dp3342
sg75
g3292
sg68
(lp3343
g61
(g82
g63
NtRp3344
(dp3345
g66
(dp3346
g86
g87
ssg75
g3340
sg68
(lp3347
S'last_query'
p3348
asbag61
(g82
g63
NtRp3349
(dp3350
g66
(dp3351
g93
g94
ssg75
g3340
sg68
(lp3352
S':'
asbag61
(g82
g63
NtRp3353
(dp3354
g66
(dp3355
sg75
g3340
sg68
(lp3356
g61
(g62
g63
NtRp3357
(dp3358
g66
(dp3359
g74
I5
ssg75
g3353
sg68
(lp3360
S'db.funcionarios.id>0'
p3361
asbasbasbasbasbsS'etype'
p3362
S"<class 'sqlite3.OperationalError'>"
p3363
sS'date'
p3364
S'Sun Sep 30 01:22:35 2012'
p3365
sS'response'
p3366
g61
(g62
g63
NtRp3367
(dp3368
g66
(dp3369
sg68
(lp3370
g61
(g70
g63
NtRp3371
(dp3372
g66
(dp3373
g74
I5
ssg75
Nsg68
(lp3374
g61
(g77
g63
NtRp3375
(dp3376
g66
(dp3377
sg75
g3371
sg68
(lp3378
g61
(g82
g63
NtRp3379
(dp3380
g66
(dp3381
g86
g87
ssg75
g3375
sg68
(lp3382
g159
asbag61
(g82
g63
NtRp3383
(dp3384
g66
(dp3385
g93
g94
ssg75
g3375
sg68
(lp3386
S':'
asbag61
(g82
g63
NtRp3387
(dp3388
g66
(dp3389
sg75
g3375
sg68
(lp3390
g61
(g62
g63
NtRp3391
(dp3392
g66
(dp3393
g74
I5
ssg75
g3387
sg68
(lp3394
S'<cStringIO.StringO object at 0x107a5f9d0>'
p3395
asbasbasbag61
(g77
g63
NtRp3396
(dp3397
g66
(dp3398
sg75
g3371
sg68
(lp3399
g61
(g82
g63
NtRp3400
(dp3401
g66
(dp3402
g86
g87
ssg75
g3396
sg68
(lp3403
g247
asbag61
(g82
g63
NtRp3404
(dp3405
g66
(dp3406
g93
g94
ssg75
g3396
sg68
(lp3407
S':'
asbag61
(g82
g63
NtRp3408
(dp3409
g66
(dp3410
sg75
g3396
sg68
(lp3411
g61
(g62
g63
NtRp3412
(dp3413
g66
(dp3414
g74
I5
ssg75
g3408
sg68
(lp3415
g61
(g70
g63
NtRp3416
(dp3417
g66
(dp3418
g74
I4
ssg75
Nsg68
(lp3419
g61
(g77
g63
NtRp3420
(dp3421
g66
(dp3422
sg75
g3416
sg68
(lp3423
g61
(g82
g63
NtRp3424
(dp3425
g66
(dp3426
g86
g87
ssg75
g3420
sg68
(lp3427
S'session_id_exemplo_validators'
p3428
asbag61
(g82
g63
NtRp3429
(dp3430
g66
(dp3431
g93
g94
ssg75
g3420
sg68
(lp3432
S':'
asbag61
(g82
g63
NtRp3433
(dp3434
g66
(dp3435
sg75
g3420
sg68
(lp3436
g61
(g62
g63
NtRp3437
(dp3438
g66
(dp3439
g74
I4
ssg75
g3433
sg68
(lp3440
g479
ag61
(g70
g63
NtRp3441
(dp3442
g66
(dp3443
g74
I3
ssg75
Nsg68
(lp3444
g61
(g77
g63
NtRp3445
(dp3446
g66
(dp3447
sg75
g3441
sg68
(lp3448
g61
(g82
g63
NtRp3449
(dp3450
g66
(dp3451
g86
g87
ssg75
g3445
sg68
(lp3452
g298
asbag61
(g82
g63
NtRp3453
(dp3454
g66
(dp3455
g93
g94
ssg75
g3445
sg68
(lp3456
S':'
asbag61
(g82
g63
NtRp3457
(dp3458
g66
(dp3459
sg75
g3445
sg68
(lp3460
g61
(g62
g63
NtRp3461
(dp3462
g66
(dp3463
g74
I3
ssg75
g3457
sg68
(lp3464
S''
asbasbasbag61
(g77
g63
NtRp3465
(dp3466
g66
(dp3467
sg75
g3441
sg68
(lp3468
g61
(g82
g63
NtRp3469
(dp3470
g66
(dp3471
g86
g87
ssg75
g3465
sg68
(lp3472
g319
asbag61
(g82
g63
NtRp3473
(dp3474
g66
(dp3475
g93
g94
ssg75
g3465
sg68
(lp3476
S':'
asbag61
(g82
g63
NtRp3477
(dp3478
g66
(dp3479
sg75
g3465
sg68
(lp3480
g61
(g62
g63
NtRp3481
(dp3482
g66
(dp3483
g74
I3
ssg75
g3477
sg68
(lp3484
S''
asbasbasbag61
(g77
g63
NtRp3485
(dp3486
g66
(dp3487
sg75
g3441
sg68
(lp3488
g61
(g82
g63
NtRp3489
(dp3490
g66
(dp3491
g86
g87
ssg75
g3485
sg68
(lp3492
g340
asbag61
(g82
g63
NtRp3493
(dp3494
g66
(dp3495
g93
g94
ssg75
g3485
sg68
(lp3496
S':'
asbag61
(g82
g63
NtRp3497
(dp3498
g66
(dp3499
sg75
g3485
sg68
(lp3500
g61
(g62
g63
NtRp3501
(dp3502
g66
(dp3503
g74
I3
ssg75
g3497
sg68
(lp3504
S''
asbasbasbag61
(g77
g63
NtRp3505
(dp3506
g66
(dp3507
sg75
g3441
sg68
(lp3508
g61
(g82
g63
NtRp3509
(dp3510
g66
(dp3511
g86
g87
ssg75
g3505
sg68
(lp3512
g361
asbag61
(g82
g63
NtRp3513
(dp3514
g66
(dp3515
g93
g94
ssg75
g3505
sg68
(lp3516
S':'
asbag61
(g82
g63
NtRp3517
(dp3518
g66
(dp3519
sg75
g3505
sg68
(lp3520
g61
(g62
g63
NtRp3521
(dp3522
g66
(dp3523
g74
I3
ssg75
g3517
sg68
(lp3524
S''
asbasbasbag61
(g77
g63
NtRp3525
(dp3526
g66
(dp3527
sg75
g3441
sg68
(lp3528
g61
(g82
g63
NtRp3529
(dp3530
g66
(dp3531
g86
g87
ssg75
g3525
sg68
(lp3532
g382
asbag61
(g82
g63
NtRp3533
(dp3534
g66
(dp3535
g93
g94
ssg75
g3525
sg68
(lp3536
S':'
asbag61
(g82
g63
NtRp3537
(dp3538
g66
(dp3539
sg75
g3525
sg68
(lp3540
g61
(g62
g63
NtRp3541
(dp3542
g66
(dp3543
g74
I3
ssg75
g3537
sg68
(lp3544
S''
asbasbasbag61
(g77
g63
NtRp3545
(dp3546
g66
(dp3547
sg75
g3441
sg68
(lp3548
g61
(g82
g63
NtRp3549
(dp3550
g66
(dp3551
g86
g87
ssg75
g3545
sg68
(lp3552
g403
asbag61
(g82
g63
NtRp3553
(dp3554
g66
(dp3555
g93
g94
ssg75
g3545
sg68
(lp3556
S':'
asbag61
(g82
g63
NtRp3557
(dp3558
g66
(dp3559
sg75
g3545
sg68
(lp3560
g61
(g62
g63
NtRp3561
(dp3562
g66
(dp3563
g74
I3
ssg75
g3557
sg68
(lp3564
S'/'
asbasbasbag61
(g77
g63
NtRp3565
(dp3566
g66
(dp3567
sg75
g3441
sg68
(lp3568
g61
(g82
g63
NtRp3569
(dp3570
g66
(dp3571
g86
g87
ssg75
g3565
sg68
(lp3572
g424
asbag61
(g82
g63
NtRp3573
(dp3574
g66
(dp3575
g93
g94
ssg75
g3565
sg68
(lp3576
S':'
asbag61
(g82
g63
NtRp3577
(dp3578
g66
(dp3579
sg75
g3565
sg68
(lp3580
g61
(g62
g63
NtRp3581
(dp3582
g66
(dp3583
g74
I3
ssg75
g3577
sg68
(lp3584
S''
asbasbasbag61
(g77
g63
NtRp3585
(dp3586
g66
(dp3587
sg75
g3441
sg68
(lp3588
g61
(g82
g63
NtRp3589
(dp3590
g66
(dp3591
g86
g87
ssg75
g3585
sg68
(lp3592
g445
asbag61
(g82
g63
NtRp3593
(dp3594
g66
(dp3595
g93
g94
ssg75
g3585
sg68
(lp3596
S':'
asbag61
(g82
g63
NtRp3597
(dp3598
g66
(dp3599
sg75
g3585
sg68
(lp3600
g61
(g62
g63
NtRp3601
(dp3602
g66
(dp3603
g74
I3
ssg75
g3597
sg68
(lp3604
S''
asbasbasbasbasbasbasbasbasbasbasbag61
(g77
g63
NtRp3605
(dp3606
g66
(dp3607
sg75
g3371
sg68
(lp3608
g61
(g82
g63
NtRp3609
(dp3610
g66
(dp3611
g86
g87
ssg75
g3605
sg68
(lp3612
S'delimiters'
p3613
asbag61
(g82
g63
NtRp3614
(dp3615
g66
(dp3616
g93
g94
ssg75
g3605
sg68
(lp3617
S':'
asbag61
(g82
g63
NtRp3618
(dp3619
g66
(dp3620
sg75
g3605
sg68
(lp3621
g61
(g62
g63
NtRp3622
(dp3623
g66
(dp3624
g74
I5
ssg75
g3618
sg68
(lp3625
g61
(g70
g63
NtRp3626
(dp3627
g66
(dp3628
g74
I4
ssg75
Nsg68
(lp3629
g61
(g77
g63
NtRp3630
(dp3631
g66
(dp3632
sg75
g3626
sg68
(lp3633
g61
(g82
g63
NtRp3634
(dp3635
g66
(dp3636
sg75
g3630
sg68
(lp3637
g61
(g62
g63
NtRp3638
(dp3639
g66
(dp3640
g74
I4
ssg75
g3634
sg68
(lp3641
S'{{'
p3642
asbasbasbag61
(g77
g63
NtRp3643
(dp3644
g66
(dp3645
sg75
g3626
sg68
(lp3646
g61
(g82
g63
NtRp3647
(dp3648
g66
(dp3649
sg75
g3643
sg68
(lp3650
g61
(g62
g63
NtRp3651
(dp3652
g66
(dp3653
g74
I4
ssg75
g3647
sg68
(lp3654
S'}}'
p3655
asbasbasbasbasbasbasbag61
(g77
g63
NtRp3656
(dp3657
g66
(dp3658
sg75
g3371
sg68
(lp3659
g61
(g82
g63
NtRp3660
(dp3661
g66
(dp3662
g86
g87
ssg75
g3656
sg68
(lp3663
S'files'
p3664
asbag61
(g82
g63
NtRp3665
(dp3666
g66
(dp3667
g93
g94
ssg75
g3656
sg68
(lp3668
S':'
asbag61
(g82
g63
NtRp3669
(dp3670
g66
(dp3671
sg75
g3656
sg68
(lp3672
g61
(g62
g63
NtRp3673
(dp3674
g66
(dp3675
g74
I5
ssg75
g3669
sg68
(lp3676
g61
(g70
g63
NtRp3677
(dp3678
g66
(dp3679
g74
I4
ssg75
Nsg68
(lp3680
sbasbasbasbag61
(g77
g63
NtRp3681
(dp3682
g66
(dp3683
sg75
g3371
sg68
(lp3684
g61
(g82
g63
NtRp3685
(dp3686
g66
(dp3687
g86
g87
ssg75
g3681
sg68
(lp3688
S'flash'
p3689
asbag61
(g82
g63
NtRp3690
(dp3691
g66
(dp3692
g93
g94
ssg75
g3681
sg68
(lp3693
S':'
asbag61
(g82
g63
NtRp3694
(dp3695
g66
(dp3696
sg75
g3681
sg68
(lp3697
g61
(g62
g63
NtRp3698
(dp3699
g66
(dp3700
g74
I5
ssg75
g3694
sg68
(lp3701
S''
asbasbasbag61
(g77
g63
NtRp3702
(dp3703
g66
(dp3704
sg75
g3371
sg68
(lp3705
g61
(g82
g63
NtRp3706
(dp3707
g66
(dp3708
g86
g87
ssg75
g3702
sg68
(lp3709
S'generic_patterns'
p3710
asbag61
(g82
g63
NtRp3711
(dp3712
g66
(dp3713
g93
g94
ssg75
g3702
sg68
(lp3714
S':'
asbag61
(g82
g63
NtRp3715
(dp3716
g66
(dp3717
sg75
g3702
sg68
(lp3718
g61
(g62
g63
NtRp3719
(dp3720
g66
(dp3721
g74
I5
ssg75
g3715
sg68
(lp3722
g61
(g70
g63
NtRp3723
(dp3724
g66
(dp3725
g74
I4
ssg75
Nsg68
(lp3726
g61
(g77
g63
NtRp3727
(dp3728
g66
(dp3729
sg75
g3723
sg68
(lp3730
g61
(g82
g63
NtRp3731
(dp3732
g66
(dp3733
sg75
g3727
sg68
(lp3734
g61
(g62
g63
NtRp3735
(dp3736
g66
(dp3737
g74
I4
ssg75
g3731
sg68
(lp3738
S'*'
asbasbasbasbasbasbasbag61
(g77
g63
NtRp3739
(dp3740
g66
(dp3741
sg75
g3371
sg68
(lp3742
g61
(g82
g63
NtRp3743
(dp3744
g66
(dp3745
g86
g87
ssg75
g3739
sg68
(lp3746
S'google_analytics_id'
p3747
asbag61
(g82
g63
NtRp3748
(dp3749
g66
(dp3750
g93
g94
ssg75
g3739
sg68
(lp3751
S':'
asbag61
(g82
g63
NtRp3752
(dp3753
g66
(dp3754
sg75
g3739
sg68
(lp3755
g61
(g62
g63
NtRp3756
(dp3757
g66
(dp3758
g74
I5
ssg75
g3752
sg68
(lp3759
S'None'
p3760
asbasbasbag61
(g77
g63
NtRp3761
(dp3762
g66
(dp3763
sg75
g3371
sg68
(lp3764
g61
(g82
g63
NtRp3765
(dp3766
g66
(dp3767
g86
g87
ssg75
g3761
sg68
(lp3768
S'headers'
p3769
asbag61
(g82
g63
NtRp3770
(dp3771
g66
(dp3772
g93
g94
ssg75
g3761
sg68
(lp3773
S':'
asbag61
(g82
g63
NtRp3774
(dp3775
g66
(dp3776
sg75
g3761
sg68
(lp3777
g61
(g62
g63
NtRp3778
(dp3779
g66
(dp3780
g74
I5
ssg75
g3774
sg68
(lp3781
g61
(g70
g63
NtRp3782
(dp3783
g66
(dp3784
g74
I4
ssg75
Nsg68
(lp3785
g61
(g77
g63
NtRp3786
(dp3787
g66
(dp3788
sg75
g3782
sg68
(lp3789
g61
(g82
g63
NtRp3790
(dp3791
g66
(dp3792
g86
g87
ssg75
g3786
sg68
(lp3793
S'X-Powered-By'
p3794
asbag61
(g82
g63
NtRp3795
(dp3796
g66
(dp3797
g93
g94
ssg75
g3786
sg68
(lp3798
S':'
asbag61
(g82
g63
NtRp3799
(dp3800
g66
(dp3801
sg75
g3786
sg68
(lp3802
g61
(g62
g63
NtRp3803
(dp3804
g66
(dp3805
g74
I4
ssg75
g3799
sg68
(lp3806
S'web2py'
p3807
asbasbasbasbasbasbasbag61
(g77
g63
NtRp3808
(dp3809
g66
(dp3810
sg75
g3371
sg68
(lp3811
g61
(g82
g63
NtRp3812
(dp3813
g66
(dp3814
g86
g87
ssg75
g3808
sg68
(lp3815
S'menu'
p3816
asbag61
(g82
g63
NtRp3817
(dp3818
g66
(dp3819
g93
g94
ssg75
g3808
sg68
(lp3820
S':'
asbag61
(g82
g63
NtRp3821
(dp3822
g66
(dp3823
sg75
g3808
sg68
(lp3824
g61
(g62
g63
NtRp3825
(dp3826
g66
(dp3827
g74
I5
ssg75
g3821
sg68
(lp3828
g61
(g70
g63
NtRp3829
(dp3830
g66
(dp3831
g74
I4
ssg75
Nsg68
(lp3832
g61
(g77
g63
NtRp3833
(dp3834
g66
(dp3835
sg75
g3829
sg68
(lp3836
g61
(g82
g63
NtRp3837
(dp3838
g66
(dp3839
sg75
g3833
sg68
(lp3840
g61
(g62
g63
NtRp3841
(dp3842
g66
(dp3843
g74
I4
ssg75
g3837
sg68
(lp3844
g61
(g70
g63
NtRp3845
(dp3846
g66
(dp3847
g74
I3
ssg75
Nsg68
(lp3848
g61
(g77
g63
NtRp3849
(dp3850
g66
(dp3851
sg75
g3845
sg68
(lp3852
g61
(g82
g63
NtRp3853
(dp3854
g66
(dp3855
sg75
g3849
sg68
(lp3856
g61
(g62
g63
NtRp3857
(dp3858
g66
(dp3859
g74
I3
ssg75
g3853
sg68
(lp3860
cgluon.languages
lazyT_unpickle
p3861
(S's\x04\x00\x00\x00Home'
tRp3862
asbasbasbag61
(g77
g63
NtRp3863
(dp3864
g66
(dp3865
sg75
g3845
sg68
(lp3866
g61
(g82
g63
NtRp3867
(dp3868
g66
(dp3869
sg75
g3863
sg68
(lp3870
g61
(g62
g63
NtRp3871
(dp3872
g66
(dp3873
g74
I3
ssg75
g3867
sg68
(lp3874
g104
asbasbasbag61
(g77
g63
NtRp3875
(dp3876
g66
(dp3877
sg75
g3845
sg68
(lp3878
g61
(g82
g63
NtRp3879
(dp3880
g66
(dp3881
sg75
g3875
sg68
(lp3882
g61
(g62
g63
NtRp3883
(dp3884
g66
(dp3885
g74
I3
ssg75
g3879
sg68
(lp3886
S'/exemplo_validators/default/index'
p3887
asbasbasbag61
(g77
g63
NtRp3888
(dp3889
g66
(dp3890
sg75
g3845
sg68
(lp3891
g61
(g82
g63
NtRp3892
(dp3893
g66
(dp3894
sg75
g3888
sg68
(lp3895
g61
(g62
g63
NtRp3896
(dp3897
g66
(dp3898
g74
I3
ssg75
g3892
sg68
(lp3899
g61
(g70
g63
NtRp3900
(dp3901
g66
(dp3902
g74
I2
ssg75
Nsg68
(lp3903
sbasbasbasbasbasbasbasbag61
(g77
g63
NtRp3904
(dp3905
g66
(dp3906
sg75
g3829
sg68
(lp3907
g61
(g82
g63
NtRp3908
(dp3909
g66
(dp3910
sg75
g3904
sg68
(lp3911
g61
(g62
g63
NtRp3912
(dp3913
g66
(dp3914
g74
I4
ssg75
g3908
sg68
(lp3915
g61
(g70
g63
NtRp3916
(dp3917
g66
(dp3918
g74
I3
ssg75
Nsg68
(lp3919
g61
(g77
g63
NtRp3920
(dp3921
g66
(dp3922
sg75
g3916
sg68
(lp3923
g61
(g82
g63
NtRp3924
(dp3925
g66
(dp3926
sg75
g3920
sg68
(lp3927
g61
(g62
g63
NtRp3928
(dp3929
g66
(dp3930
g74
I3
ssg75
g3924
sg68
(lp3931
g61
(cgluon.html
SPAN
p3932
g63
NtRp3933
(dp3934
g66
(dp3935
g86
S'color:yellow'
p3936
ssg75
Nsg68
(lp3937
g3807
asbasbasbasbag61
(g77
g63
NtRp3938
(dp3939
g66
(dp3940
sg75
g3916
sg68
(lp3941
g61
(g82
g63
NtRp3942
(dp3943
g66
(dp3944
sg75
g3938
sg68
(lp3945
g61
(g62
g63
NtRp3946
(dp3947
g66
(dp3948
g74
I3
ssg75
g3942
sg68
(lp3949
g104
asbasbasbag61
(g77
g63
NtRp3950
(dp3951
g66
(dp3952
sg75
g3916
sg68
(lp3953
g61
(g82
g63
NtRp3954
(dp3955
g66
(dp3956
sg75
g3950
sg68
(lp3957
g61
(g62
g63
NtRp3958
(dp3959
g66
(dp3960
g74
I3
ssg75
g3954
sg68
(lp3961
S'http://web2py.com'
p3962
asbasbasbag61
(g77
g63
NtRp3963
(dp3964
g66
(dp3965
sg75
g3916
sg68
(lp3966
g61
(g82
g63
NtRp3967
(dp3968
g66
(dp3969
sg75
g3963
sg68
(lp3970
g61
(g62
g63
NtRp3971
(dp3972
g66
(dp3973
g74
I3
ssg75
g3967
sg68
(lp3974
g61
(g70
g63
NtRp3975
(dp3976
g66
(dp3977
g74
I2
ssg75
Nsg68
(lp3978
g61
(g77
g63
NtRp3979
(dp3980
g66
(dp3981
sg75
g3975
sg68
(lp3982
g61
(g82
g63
NtRp3983
(dp3984
g66
(dp3985
sg75
g3979
sg68
(lp3986
g61
(g62
g63
NtRp3987
(dp3988
g66
(dp3989
g74
I2
ssg75
g3983
sg68
(lp3990
g61
(g70
g63
NtRp3991
(dp3992
g66
(dp3993
g74
I1
ssg75
Nsg68
(lp3994
g61
(g77
g63
NtRp3995
(dp3996
g66
(dp3997
sg75
g3991
sg68
(lp3998
g61
(g82
g63
NtRp3999
(dp4000
g66
(dp4001
sg75
g3995
sg68
(lp4002
g61
(g62
g63
NtRp4003
(dp4004
g66
(dp4005
g74
I1
ssg75
g3999
sg68
(lp4006
g3861
(S's\x08\x00\x00\x00My Sites'
tRp4007
asbasbasbag61
(g77
g63
NtRp4008
(dp4009
g66
(dp4010
sg75
g3991
sg68
(lp4011
g61
(g82
g63
NtRp4012
(dp4013
g66
(dp4014
sg75
g4008
sg68
(lp4015
g61
(g62
g63
NtRp4016
(dp4017
g66
(dp4018
g74
I1
ssg75
g4012
sg68
(lp4019
I00
asbasbasbag61
(g77
g63
NtRp4020
(dp4021
g66
(dp4022
sg75
g3991
sg68
(lp4023
g61
(g82
g63
NtRp4024
(dp4025
g66
(dp4026
sg75
g4020
sg68
(lp4027
g61
(g62
g63
NtRp4028
(dp4029
g66
(dp4030
g74
I1
ssg75
g4024
sg68
(lp4031
S'/admin/default/site'
p4032
asbasbasbasbasbasbasbag61
(g77
g63
NtRp4033
(dp4034
g66
(dp4035
sg75
g3975
sg68
(lp4036
g61
(g82
g63
NtRp4037
(dp4038
g66
(dp4039
sg75
g4033
sg68
(lp4040
g61
(g62
g63
NtRp4041
(dp4042
g66
(dp4043
g74
I2
ssg75
g4037
sg68
(lp4044
g61
(g70
g63
NtRp4045
(dp4046
g66
(dp4047
g74
I1
ssg75
Nsg68
(lp4048
g61
(g77
g63
NtRp4049
(dp4050
g66
(dp4051
sg75
g4045
sg68
(lp4052
g61
(g82
g63
NtRp4053
(dp4054
g66
(dp4055
sg75
g4049
sg68
(lp4056
g61
(g62
g63
NtRp4057
(dp4058
g66
(dp4059
g74
I1
ssg75
g4053
sg68
(lp4060
g3861
(S's\x08\x00\x00\x00This App'
tRp4061
asbasbasbag61
(g77
g63
NtRp4062
(dp4063
g66
(dp4064
sg75
g4045
sg68
(lp4065
g61
(g82
g63
NtRp4066
(dp4067
g66
(dp4068
sg75
g4062
sg68
(lp4069
g61
(g62
g63
NtRp4070
(dp4071
g66
(dp4072
g74
I1
ssg75
g4066
sg68
(lp4073
I00
asbasbasbag61
(g77
g63
NtRp4074
(dp4075
g66
(dp4076
sg75
g4045
sg68
(lp4077
g61
(g82
g63
NtRp4078
(dp4079
g66
(dp4080
sg75
g4074
sg68
(lp4081
g61
(g62
g63
NtRp4082
(dp4083
g66
(dp4084
g74
I1
ssg75
g4078
sg68
(lp4085
S'/admin/default/design/exemplo_validators'
p4086
asbasbasbag61
(g77
g63
NtRp4087
(dp4088
g66
(dp4089
sg75
g4045
sg68
(lp4090
g61
(g82
g63
NtRp4091
(dp4092
g66
(dp4093
sg75
g4087
sg68
(lp4094
g61
(g62
g63
NtRp4095
(dp4096
g66
(dp4097
g74
I1
ssg75
g4091
sg68
(lp4098
(lp4099
(g3861
(S's\n\x00\x00\x00Controller'
tRp4100
I00
S'/admin/default/edit/exemplo_validators/controllers/funcionarios.py'
tp4101
a(g3861
(S's\x04\x00\x00\x00View'
tRp4102
I00
S'/admin/default/edit/exemplo_validators/views/funcionarios/novo.html'
tp4103
a(g3861
(S's\x06\x00\x00\x00Layout'
tRp4104
I00
S'/admin/default/edit/exemplo_validators/views/layout.html'
tp4105
a(g3861
(S's\n\x00\x00\x00Stylesheet'
tRp4106
I00
S'/admin/default/edit/exemplo_validators/static/css/web2py.css'
tp4107
a(g3861
(S's\x08\x00\x00\x00DB Model'
tRp4108
I00
S'/admin/default/edit/exemplo_validators/models/db.py'
tp4109
a(g3861
(S's\n\x00\x00\x00Menu Model'
tRp4110
I00
S'/admin/default/edit/exemplo_validators/models/menu.py'
tp4111
a(g3861
(S's\x08\x00\x00\x00Database'
tRp4112
I00
S'/exemplo_validators/appadmin/index'
tp4113
a(g3861
(S's\x06\x00\x00\x00Errors'
tRp4114
I00
S'/admin/default/errors/exemplo_validators'
tp4115
a(g3861
(S's\x05\x00\x00\x00About'
tRp4116
I00
S'/admin/default/about/exemplo_validators'
tp4117
aasbasbasbasbasbasbasbag61
(g77
g63
NtRp4118
(dp4119
g66
(dp4120
sg75
g3975
sg68
(lp4121
g61
(g82
g63
NtRp4122
(dp4123
g66
(dp4124
sg75
g4118
sg68
(lp4125
g61
(g62
g63
NtRp4126
(dp4127
g66
(dp4128
g74
I2
ssg75
g4122
sg68
(lp4129
g61
(g70
g63
NtRp4130
(dp4131
g66
(dp4132
g74
I1
ssg75
Nsg68
(lp4133
g61
(g77
g63
NtRp4134
(dp4135
g66
(dp4136
sg75
g4130
sg68
(lp4137
g61
(g82
g63
NtRp4138
(dp4139
g66
(dp4140
sg75
g4134
sg68
(lp4141
g61
(g62
g63
NtRp4142
(dp4143
g66
(dp4144
g74
I1
ssg75
g4138
sg68
(lp4145
S'web2py.com'
p4146
asbasbasbag61
(g77
g63
NtRp4147
(dp4148
g66
(dp4149
sg75
g4130
sg68
(lp4150
g61
(g82
g63
NtRp4151
(dp4152
g66
(dp4153
sg75
g4147
sg68
(lp4154
g61
(g62
g63
NtRp4155
(dp4156
g66
(dp4157
g74
I1
ssg75
g4151
sg68
(lp4158
I00
asbasbasbag61
(g77
g63
NtRp4159
(dp4160
g66
(dp4161
sg75
g4130
sg68
(lp4162
g61
(g82
g63
NtRp4163
(dp4164
g66
(dp4165
sg75
g4159
sg68
(lp4166
g61
(g62
g63
NtRp4167
(dp4168
g66
(dp4169
g74
I1
ssg75
g4163
sg68
(lp4170
S'http://www.web2py.com'
p4171
asbasbasbag61
(g77
g63
NtRp4172
(dp4173
g66
(dp4174
sg75
g4130
sg68
(lp4175
g61
(g82
g63
NtRp4176
(dp4177
g66
(dp4178
sg75
g4172
sg68
(lp4179
g61
(g62
g63
NtRp4180
(dp4181
g66
(dp4182
g74
I1
ssg75
g4176
sg68
(lp4183
(lp4184
(g3861
(S's\x08\x00\x00\x00Download'
tRp4185
I00
S'http://www.web2py.com/examples/default/download'
p4186
tp4187
a(g3861
(S's\x07\x00\x00\x00Support'
tRp4188
I00
S'http://www.web2py.com/examples/default/support'
p4189
tp4190
a(g3861
(S's\x04\x00\x00\x00Demo'
tRp4191
I00
S'http://web2py.com/demo_admin'
p4192
tp4193
a(g3861
(S's\x0e\x00\x00\x00Quick Examples'
tRp4194
I00
S'http://web2py.com/examples/default/examples'
p4195
tp4196
a(g3861
(S's\x03\x00\x00\x00FAQ'
tRp4197
I00
S'http://web2py.com/AlterEgo'
p4198
tp4199
a(g3861
(S's\x06\x00\x00\x00Videos'
tRp4200
I00
S'http://www.web2py.com/examples/default/videos/'
p4201
tp4202
a(g3861
(S's\x11\x00\x00\x00Free Applications'
tRp4203
I00
S'http://web2py.com/appliances'
p4204
tp4205
a(g3861
(S's\x07\x00\x00\x00Plugins'
tRp4206
I00
S'http://web2py.com/plugins'
p4207
tp4208
a(g3861
(S's\x07\x00\x00\x00Layouts'
tRp4209
I00
S'http://web2py.com/layouts'
p4210
tp4211
a(g3861
(S's\x07\x00\x00\x00Recipes'
tRp4212
I00
S'http://web2pyslices.com/'
p4213
tp4214
a(g3861
(S's\x08\x00\x00\x00Semantic'
tRp4215
I00
S'http://web2py.com/semantic'
p4216
tp4217
aasbasbasbasbasbasbasbag61
(g77
g63
NtRp4218
(dp4219
g66
(dp4220
sg75
g3975
sg68
(lp4221
g61
(g82
g63
NtRp4222
(dp4223
g66
(dp4224
sg75
g4218
sg68
(lp4225
g61
(g62
g63
NtRp4226
(dp4227
g66
(dp4228
g74
I2
ssg75
g4222
sg68
(lp4229
g61
(g70
g63
NtRp4230
(dp4231
g66
(dp4232
g74
I1
ssg75
Nsg68
(lp4233
g61
(g77
g63
NtRp4234
(dp4235
g66
(dp4236
sg75
g4230
sg68
(lp4237
g61
(g82
g63
NtRp4238
(dp4239
g66
(dp4240
sg75
g4234
sg68
(lp4241
g61
(g62
g63
NtRp4242
(dp4243
g66
(dp4244
g74
I1
ssg75
g4238
sg68
(lp4245
g3861
(S's\r\x00\x00\x00Documentation'
tRp4246
asbasbasbag61
(g77
g63
NtRp4247
(dp4248
g66
(dp4249
sg75
g4230
sg68
(lp4250
g61
(g82
g63
NtRp4251
(dp4252
g66
(dp4253
sg75
g4247
sg68
(lp4254
g61
(g62
g63
NtRp4255
(dp4256
g66
(dp4257
g74
I1
ssg75
g4251
sg68
(lp4258
I00
asbasbasbag61
(g77
g63
NtRp4259
(dp4260
g66
(dp4261
sg75
g4230
sg68
(lp4262
g61
(g82
g63
NtRp4263
(dp4264
g66
(dp4265
sg75
g4259
sg68
(lp4266
g61
(g62
g63
NtRp4267
(dp4268
g66
(dp4269
g74
I1
ssg75
g4263
sg68
(lp4270
S'http://www.web2py.com/book'
p4271
asbasbasbag61
(g77
g63
NtRp4272
(dp4273
g66
(dp4274
sg75
g4230
sg68
(lp4275
g61
(g82
g63
NtRp4276
(dp4277
g66
(dp4278
sg75
g4272
sg68
(lp4279
g61
(g62
g63
NtRp4280
(dp4281
g66
(dp4282
g74
I1
ssg75
g4276
sg68
(lp4283
(lp4284
(g3861
(S's\x07\x00\x00\x00Preface'
tRp4285
I00
S'http://www.web2py.com/book/default/chapter/00'
p4286
tp4287
a(g3861
(S's\x0c\x00\x00\x00Introduction'
tRp4288
I00
S'http://www.web2py.com/book/default/chapter/01'
p4289
tp4290
a(g3861
(S's\x06\x00\x00\x00Python'
tRp4291
I00
S'http://www.web2py.com/book/default/chapter/02'
p4292
tp4293
a(g3861
(S's\x08\x00\x00\x00Overview'
tRp4294
I00
S'http://www.web2py.com/book/default/chapter/03'
p4295
tp4296
a(g3861
(S's\x08\x00\x00\x00The Core'
tRp4297
I00
S'http://www.web2py.com/book/default/chapter/04'
p4298
tp4299
a(g3861
(S's\t\x00\x00\x00The Views'
tRp4300
I00
S'http://www.web2py.com/book/default/chapter/05'
p4301
tp4302
a(g3861
(S's\x08\x00\x00\x00Database'
tRp4303
I00
S'http://www.web2py.com/book/default/chapter/06'
p4304
tp4305
a(g3861
(S's\x14\x00\x00\x00Forms and Validators'
tRp4306
I00
S'http://www.web2py.com/book/default/chapter/07'
p4307
tp4308
a(g3861
(S's\r\x00\x00\x00Email and SMS'
tRp4309
I00
S'http://www.web2py.com/book/default/chapter/08'
p4310
tp4311
a(g3861
(S's\x0e\x00\x00\x00Access Control'
tRp4312
I00
S'http://www.web2py.com/book/default/chapter/09'
p4313
tp4314
a(g3861
(S's\x08\x00\x00\x00Services'
tRp4315
I00
S'http://www.web2py.com/book/default/chapter/10'
p4316
tp4317
a(g3861
(S's\x0c\x00\x00\x00Ajax Recipes'
tRp4318
I00
S'http://www.web2py.com/book/default/chapter/11'
p4319
tp4320
a(g3861
(S's\x16\x00\x00\x00Components and Plugins'
tRp4321
I00
S'http://www.web2py.com/book/default/chapter/12'
p4322
tp4323
a(g3861
(S's\x12\x00\x00\x00Deployment Recipes'
tRp4324
I00
S'http://www.web2py.com/book/default/chapter/13'
p4325
tp4326
a(g3861
(S's\r\x00\x00\x00Other Recipes'
tRp4327
I00
S'http://www.web2py.com/book/default/chapter/14'
p4328
tp4329
a(g3861
(S's\r\x00\x00\x00Buy this book'
tRp4330
I00
S'http://stores.lulu.com/web2py'
p4331
tp4332
aasbasbasbasbasbasbasbag61
(g77
g63
NtRp4333
(dp4334
g66
(dp4335
sg75
g3975
sg68
(lp4336
g61
(g82
g63
NtRp4337
(dp4338
g66
(dp4339
sg75
g4333
sg68
(lp4340
g61
(g62
g63
NtRp4341
(dp4342
g66
(dp4343
g74
I2
ssg75
g4337
sg68
(lp4344
g61
(g70
g63
NtRp4345
(dp4346
g66
(dp4347
g74
I1
ssg75
Nsg68
(lp4348
g61
(g77
g63
NtRp4349
(dp4350
g66
(dp4351
sg75
g4345
sg68
(lp4352
g61
(g82
g63
NtRp4353
(dp4354
g66
(dp4355
sg75
g4349
sg68
(lp4356
g61
(g62
g63
NtRp4357
(dp4358
g66
(dp4359
g74
I1
ssg75
g4353
sg68
(lp4360
g3861
(S's\t\x00\x00\x00Community'
tRp4361
asbasbasbag61
(g77
g63
NtRp4362
(dp4363
g66
(dp4364
sg75
g4345
sg68
(lp4365
g61
(g82
g63
NtRp4366
(dp4367
g66
(dp4368
sg75
g4362
sg68
(lp4369
g61
(g62
g63
NtRp4370
(dp4371
g66
(dp4372
g74
I1
ssg75
g4366
sg68
(lp4373
I00
asbasbasbag61
(g77
g63
NtRp4374
(dp4375
g66
(dp4376
sg75
g4345
sg68
(lp4377
g61
(g82
g63
NtRp4378
(dp4379
g66
(dp4380
sg75
g4374
sg68
(lp4381
g61
(g62
g63
NtRp4382
(dp4383
g66
(dp4384
g74
I1
ssg75
g4378
sg68
(lp4385
Nasbasbasbag61
(g77
g63
NtRp4386
(dp4387
g66
(dp4388
sg75
g4345
sg68
(lp4389
g61
(g82
g63
NtRp4390
(dp4391
g66
(dp4392
sg75
g4386
sg68
(lp4393
g61
(g62
g63
NtRp4394
(dp4395
g66
(dp4396
g74
I1
ssg75
g4390
sg68
(lp4397
(lp4398
(g3861
(S's\x06\x00\x00\x00Groups'
tRp4399
I00
S'http://www.web2py.com/examples/default/usergroups'
p4400
tp4401
a(g3861
(S's\x07\x00\x00\x00Twitter'
tRp4402
I00
S'http://twitter.com/web2py'
p4403
tp4404
a(g3861
(S's\t\x00\x00\x00Live Chat'
tRp4405
I00
S'http://webchat.freenode.net/?channels=web2py'
p4406
tp4407
aasbasbasbasbasbasbasbag61
(g77
g63
NtRp4408
(dp4409
g66
(dp4410
sg75
g3975
sg68
(lp4411
g61
(g82
g63
NtRp4412
(dp4413
g66
(dp4414
sg75
g4408
sg68
(lp4415
g61
(g62
g63
NtRp4416
(dp4417
g66
(dp4418
g74
I2
ssg75
g4412
sg68
(lp4419
g61
(g70
g63
NtRp4420
(dp4421
g66
(dp4422
g74
I1
ssg75
Nsg68
(lp4423
g61
(g77
g63
NtRp4424
(dp4425
g66
(dp4426
sg75
g4420
sg68
(lp4427
g61
(g82
g63
NtRp4428
(dp4429
g66
(dp4430
sg75
g4424
sg68
(lp4431
g61
(g62
g63
NtRp4432
(dp4433
g66
(dp4434
g74
I1
ssg75
g4428
sg68
(lp4435
g3861
(S's\x07\x00\x00\x00Plugins'
tRp4436
asbasbasbag61
(g77
g63
NtRp4437
(dp4438
g66
(dp4439
sg75
g4420
sg68
(lp4440
g61
(g82
g63
NtRp4441
(dp4442
g66
(dp4443
sg75
g4437
sg68
(lp4444
g61
(g62
g63
NtRp4445
(dp4446
g66
(dp4447
g74
I1
ssg75
g4441
sg68
(lp4448
I00
asbasbasbag61
(g77
g63
NtRp4449
(dp4450
g66
(dp4451
sg75
g4420
sg68
(lp4452
g61
(g82
g63
NtRp4453
(dp4454
g66
(dp4455
sg75
g4449
sg68
(lp4456
g61
(g62
g63
NtRp4457
(dp4458
g66
(dp4459
g74
I1
ssg75
g4453
sg68
(lp4460
Nasbasbasbag61
(g77
g63
NtRp4461
(dp4462
g66
(dp4463
sg75
g4420
sg68
(lp4464
g61
(g82
g63
NtRp4465
(dp4466
g66
(dp4467
sg75
g4461
sg68
(lp4468
g61
(g62
g63
NtRp4469
(dp4470
g66
(dp4471
g74
I1
ssg75
g4465
sg68
(lp4472
(lp4473
(S'plugin_wiki'
p4474
I00
S'http://web2py.com/examples/default/download'
p4475
tp4476
a(g3861
(S's\r\x00\x00\x00Other Plugins'
tRp4477
I00
g4207
tp4478
a(g3861
(S's\x0e\x00\x00\x00Layout Plugins'
tRp4479
I00
g4210
tp4480
aasbasbasbasbasbasbasbasbasbasbasbasbasbasbasbasbasbasbasbag61
(g77
g63
NtRp4481
(dp4482
g66
(dp4483
sg75
g3371
sg68
(lp4484
g61
(g82
g63
NtRp4485
(dp4486
g66
(dp4487
g86
g87
ssg75
g4481
sg68
(lp4488
S'meta'
p4489
asbag61
(g82
g63
NtRp4490
(dp4491
g66
(dp4492
g93
g94
ssg75
g4481
sg68
(lp4493
S':'
asbag61
(g82
g63
NtRp4494
(dp4495
g66
(dp4496
sg75
g4481
sg68
(lp4497
g61
(g62
g63
NtRp4498
(dp4499
g66
(dp4500
g74
I5
ssg75
g4494
sg68
(lp4501
g61
(g70
g63
NtRp4502
(dp4503
g66
(dp4504
g74
I4
ssg75
Nsg68
(lp4505
g61
(g77
g63
NtRp4506
(dp4507
g66
(dp4508
sg75
g4502
sg68
(lp4509
g61
(g82
g63
NtRp4510
(dp4511
g66
(dp4512
g86
g87
ssg75
g4506
sg68
(lp4513
S'author'
p4514
asbag61
(g82
g63
NtRp4515
(dp4516
g66
(dp4517
g93
g94
ssg75
g4506
sg68
(lp4518
S':'
asbag61
(g82
g63
NtRp4519
(dp4520
g66
(dp4521
sg75
g4506
sg68
(lp4522
g61
(g62
g63
NtRp4523
(dp4524
g66
(dp4525
g74
I4
ssg75
g4519
sg68
(lp4526
S'Your Name <you@example.com>'
p4527
asbasbasbag61
(g77
g63
NtRp4528
(dp4529
g66
(dp4530
sg75
g4502
sg68
(lp4531
g61
(g82
g63
NtRp4532
(dp4533
g66
(dp4534
g86
g87
ssg75
g4528
sg68
(lp4535
S'description'
p4536
asbag61
(g82
g63
NtRp4537
(dp4538
g66
(dp4539
g93
g94
ssg75
g4528
sg68
(lp4540
S':'
asbag61
(g82
g63
NtRp4541
(dp4542
g66
(dp4543
sg75
g4528
sg68
(lp4544
g61
(g62
g63
NtRp4545
(dp4546
g66
(dp4547
g74
I4
ssg75
g4541
sg68
(lp4548
S'a cool new app'
p4549
asbasbasbag61
(g77
g63
NtRp4550
(dp4551
g66
(dp4552
sg75
g4502
sg68
(lp4553
g61
(g82
g63
NtRp4554
(dp4555
g66
(dp4556
g86
g87
ssg75
g4550
sg68
(lp4557
S'generator'
p4558
asbag61
(g82
g63
NtRp4559
(dp4560
g66
(dp4561
g93
g94
ssg75
g4550
sg68
(lp4562
S':'
asbag61
(g82
g63
NtRp4563
(dp4564
g66
(dp4565
sg75
g4550
sg68
(lp4566
g61
(g62
g63
NtRp4567
(dp4568
g66
(dp4569
g74
I4
ssg75
g4563
sg68
(lp4570
S'Web2py Web Framework'
p4571
asbasbasbag61
(g77
g63
NtRp4572
(dp4573
g66
(dp4574
sg75
g4502
sg68
(lp4575
g61
(g82
g63
NtRp4576
(dp4577
g66
(dp4578
g86
g87
ssg75
g4572
sg68
(lp4579
S'keywords'
p4580
asbag61
(g82
g63
NtRp4581
(dp4582
g66
(dp4583
g93
g94
ssg75
g4572
sg68
(lp4584
S':'
asbag61
(g82
g63
NtRp4585
(dp4586
g66
(dp4587
sg75
g4572
sg68
(lp4588
g61
(g62
g63
NtRp4589
(dp4590
g66
(dp4591
g74
I4
ssg75
g4585
sg68
(lp4592
S'web2py, python, framework'
p4593
asbasbasbasbasbasbasbag61
(g77
g63
NtRp4594
(dp4595
g66
(dp4596
sg75
g3371
sg68
(lp4597
g61
(g82
g63
NtRp4598
(dp4599
g66
(dp4600
g86
g87
ssg75
g4594
sg68
(lp4601
S'models_to_run'
p4602
asbag61
(g82
g63
NtRp4603
(dp4604
g66
(dp4605
g93
g94
ssg75
g4594
sg68
(lp4606
S':'
asbag61
(g82
g63
NtRp4607
(dp4608
g66
(dp4609
sg75
g4594
sg68
(lp4610
g61
(g62
g63
NtRp4611
(dp4612
g66
(dp4613
g74
I5
ssg75
g4607
sg68
(lp4614
g61
(g70
g63
NtRp4615
(dp4616
g66
(dp4617
g74
I4
ssg75
Nsg68
(lp4618
g61
(g77
g63
NtRp4619
(dp4620
g66
(dp4621
sg75
g4615
sg68
(lp4622
g61
(g82
g63
NtRp4623
(dp4624
g66
(dp4625
sg75
g4619
sg68
(lp4626
g61
(g62
g63
NtRp4627
(dp4628
g66
(dp4629
g74
I4
ssg75
g4623
sg68
(lp4630
S'^\\w+\\.py$'
p4631
asbasbasbag61
(g77
g63
NtRp4632
(dp4633
g66
(dp4634
sg75
g4615
sg68
(lp4635
g61
(g82
g63
NtRp4636
(dp4637
g66
(dp4638
sg75
g4632
sg68
(lp4639
g61
(g62
g63
NtRp4640
(dp4641
g66
(dp4642
g74
I4
ssg75
g4636
sg68
(lp4643
S'^funcionarios/\\w+\\.py$'
p4644
asbasbasbag61
(g77
g63
NtRp4645
(dp4646
g66
(dp4647
sg75
g4615
sg68
(lp4648
g61
(g82
g63
NtRp4649
(dp4650
g66
(dp4651
sg75
g4645
sg68
(lp4652
g61
(g62
g63
NtRp4653
(dp4654
g66
(dp4655
g74
I4
ssg75
g4649
sg68
(lp4656
S'^funcionarios/novo/\\w+\\.py$'
p4657
asbasbasbasbasbasbasbag61
(g77
g63
NtRp4658
(dp4659
g66
(dp4660
sg75
g3371
sg68
(lp4661
g61
(g82
g63
NtRp4662
(dp4663
g66
(dp4664
g86
g87
ssg75
g4658
sg68
(lp4665
S'postprocessing'
p4666
asbag61
(g82
g63
NtRp4667
(dp4668
g66
(dp4669
g93
g94
ssg75
g4658
sg68
(lp4670
S':'
asbag61
(g82
g63
NtRp4671
(dp4672
g66
(dp4673
sg75
g4658
sg68
(lp4674
g61
(g62
g63
NtRp4675
(dp4676
g66
(dp4677
g74
I5
ssg75
g4671
sg68
(lp4678
g61
(g70
g63
NtRp4679
(dp4680
g66
(dp4681
g74
I4
ssg75
Nsg68
(lp4682
sbasbasbasbag61
(g77
g63
NtRp4683
(dp4684
g66
(dp4685
sg75
g3371
sg68
(lp4686
g61
(g82
g63
NtRp4687
(dp4688
g66
(dp4689
g86
g87
ssg75
g4683
sg68
(lp4690
S'session_file'
p4691
asbag61
(g82
g63
NtRp4692
(dp4693
g66
(dp4694
g93
g94
ssg75
g4683
sg68
(lp4695
S':'
asbag61
(g82
g63
NtRp4696
(dp4697
g66
(dp4698
sg75
g4683
sg68
(lp4699
g61
(g62
g63
NtRp4700
(dp4701
g66
(dp4702
g74
I5
ssg75
g4696
sg68
(lp4703
S"<open file '/Users/logan/Documents/web2py/applications/exemplo_validators/sessions/127.0.0.1-8736117a-c92b-4fe3-a63e-4f012d24926e', mode 'rb+' at 0x10938ec00>"
p4704
asbasbasbag61
(g77
g63
NtRp4705
(dp4706
g66
(dp4707
sg75
g3371
sg68
(lp4708
g61
(g82
g63
NtRp4709
(dp4710
g66
(dp4711
g86
g87
ssg75
g4705
sg68
(lp4712
S'session_filename'
p4713
asbag61
(g82
g63
NtRp4714
(dp4715
g66
(dp4716
g93
g94
ssg75
g4705
sg68
(lp4717
S':'
asbag61
(g82
g63
NtRp4718
(dp4719
g66
(dp4720
sg75
g4705
sg68
(lp4721
g61
(g62
g63
NtRp4722
(dp4723
g66
(dp4724
g74
I5
ssg75
g4718
sg68
(lp4725
S'/Users/logan/Documents/web2py/applications/exemplo_validators/sessions/127.0.0.1-8736117a-c92b-4fe3-a63e-4f012d24926e'
p4726
asbasbasbag61
(g77
g63
NtRp4727
(dp4728
g66
(dp4729
sg75
g3371
sg68
(lp4730
g61
(g82
g63
NtRp4731
(dp4732
g66
(dp4733
g86
g87
ssg75
g4727
sg68
(lp4734
S'session_id'
p4735
asbag61
(g82
g63
NtRp4736
(dp4737
g66
(dp4738
g93
g94
ssg75
g4727
sg68
(lp4739
S':'
asbag61
(g82
g63
NtRp4740
(dp4741
g66
(dp4742
sg75
g4727
sg68
(lp4743
g61
(g62
g63
NtRp4744
(dp4745
g66
(dp4746
g74
I5
ssg75
g4740
sg68
(lp4747
g479
asbasbasbag61
(g77
g63
NtRp4748
(dp4749
g66
(dp4750
sg75
g3371
sg68
(lp4751
g61
(g82
g63
NtRp4752
(dp4753
g66
(dp4754
g86
g87
ssg75
g4748
sg68
(lp4755
S'session_id_name'
p4756
asbag61
(g82
g63
NtRp4757
(dp4758
g66
(dp4759
g93
g94
ssg75
g4748
sg68
(lp4760
S':'
asbag61
(g82
g63
NtRp4761
(dp4762
g66
(dp4763
sg75
g4748
sg68
(lp4764
g61
(g62
g63
NtRp4765
(dp4766
g66
(dp4767
g74
I5
ssg75
g4761
sg68
(lp4768
g3428
asbasbasbag61
(g77
g63
NtRp4769
(dp4770
g66
(dp4771
sg75
g3371
sg68
(lp4772
g61
(g82
g63
NtRp4773
(dp4774
g66
(dp4775
g86
g87
ssg75
g4769
sg68
(lp4776
S'session_locked'
p4777
asbag61
(g82
g63
NtRp4778
(dp4779
g66
(dp4780
g93
g94
ssg75
g4769
sg68
(lp4781
S':'
asbag61
(g82
g63
NtRp4782
(dp4783
g66
(dp4784
sg75
g4769
sg68
(lp4785
g61
(g62
g63
NtRp4786
(dp4787
g66
(dp4788
g74
I5
ssg75
g4782
sg68
(lp4789
g1749
asbasbasbag61
(g77
g63
NtRp4790
(dp4791
g66
(dp4792
sg75
g3371
sg68
(lp4793
g61
(g82
g63
NtRp4794
(dp4795
g66
(dp4796
g86
g87
ssg75
g4790
sg68
(lp4797
S'session_new'
p4798
asbag61
(g82
g63
NtRp4799
(dp4800
g66
(dp4801
g93
g94
ssg75
g4790
sg68
(lp4802
S':'
asbag61
(g82
g63
NtRp4803
(dp4804
g66
(dp4805
sg75
g4790
sg68
(lp4806
g61
(g62
g63
NtRp4807
(dp4808
g66
(dp4809
g74
I5
ssg75
g4803
sg68
(lp4810
g104
asbasbasbag61
(g77
g63
NtRp4811
(dp4812
g66
(dp4813
sg75
g3371
sg68
(lp4814
g61
(g82
g63
NtRp4815
(dp4816
g66
(dp4817
g86
g87
ssg75
g4811
sg68
(lp4818
S'status'
p4819
asbag61
(g82
g63
NtRp4820
(dp4821
g66
(dp4822
g93
g94
ssg75
g4811
sg68
(lp4823
S':'
asbag61
(g82
g63
NtRp4824
(dp4825
g66
(dp4826
sg75
g4811
sg68
(lp4827
g61
(g62
g63
NtRp4828
(dp4829
g66
(dp4830
g74
I5
ssg75
g4824
sg68
(lp4831
S'200'
p4832
asbasbasbag61
(g77
g63
NtRp4833
(dp4834
g66
(dp4835
sg75
g3371
sg68
(lp4836
g61
(g82
g63
NtRp4837
(dp4838
g66
(dp4839
g86
g87
ssg75
g4833
sg68
(lp4840
S'subtitle'
p4841
asbag61
(g82
g63
NtRp4842
(dp4843
g66
(dp4844
g93
g94
ssg75
g4833
sg68
(lp4845
S':'
asbag61
(g82
g63
NtRp4846
(dp4847
g66
(dp4848
sg75
g4833
sg68
(lp4849
g61
(g62
g63
NtRp4850
(dp4851
g66
(dp4852
g74
I5
ssg75
g4846
sg68
(lp4853
g3861
(S's\r\x00\x00\x00customize me!'
tRp4854
asbasbasbag61
(g77
g63
NtRp4855
(dp4856
g66
(dp4857
sg75
g3371
sg68
(lp4858
g61
(g82
g63
NtRp4859
(dp4860
g66
(dp4861
g86
g87
ssg75
g4855
sg68
(lp4862
S'title'
p4863
asbag61
(g82
g63
NtRp4864
(dp4865
g66
(dp4866
g93
g94
ssg75
g4855
sg68
(lp4867
S':'
asbag61
(g82
g63
NtRp4868
(dp4869
g66
(dp4870
sg75
g4855
sg68
(lp4871
g61
(g62
g63
NtRp4872
(dp4873
g66
(dp4874
g74
I5
ssg75
g4868
sg68
(lp4875
S'Exemplo Validators'
p4876
asbasbasbag61
(g77
g63
NtRp4877
(dp4878
g66
(dp4879
sg75
g3371
sg68
(lp4880
g61
(g82
g63
NtRp4881
(dp4882
g66
(dp4883
g86
g87
ssg75
g4877
sg68
(lp4884
S'view'
p4885
asbag61
(g82
g63
NtRp4886
(dp4887
g66
(dp4888
g93
g94
ssg75
g4877
sg68
(lp4889
S':'
asbag61
(g82
g63
NtRp4890
(dp4891
g66
(dp4892
sg75
g4877
sg68
(lp4893
g61
(g62
g63
NtRp4894
(dp4895
g66
(dp4896
g74
I5
ssg75
g4890
sg68
(lp4897
S'funcionarios/novo.html'
p4898
asbasbasbasbasbsS'locals'
p4899
(dp4900
S'query'
p4901
S"'INSERT INTO empresas() VALUES ();'"
p4902
sS'self'
p4903
S'<gluon.dal.SQLiteAdapter object>'
p4904
sS'e'
S'OperationalError(\'near ")": syntax error\',)'
p4905
sS'fields'
p4906
S'[]'
p4907
sS'table'
p4908
S'<Table empresas (id,nome_da_empresa)>'
p4909
sssS'traceback'
p4910
S'Traceback (most recent call last):\n  File "/Users/logan/Documents/web2py/gluon/restricted.py", line 209, in restricted\n    exec ccode in environment\n  File "/Users/logan/Documents/web2py/applications/exemplo_validators/controllers/funcionarios.py", line 21, in <module>\n  File "/Users/logan/Documents/web2py/gluon/globals.py", line 186, in <lambda>\n    self._caller = lambda f: f()\n  File "/Users/logan/Documents/web2py/applications/exemplo_validators/controllers/funcionarios.py", line 13, in novo\n    id_empresa = db.empresas.insert(**empresa)\n  File "/Users/logan/Documents/web2py/gluon/dal.py", line 7793, in insert\n    ret =  self._db._adapter.insert(self,self._listify(fields))\n  File "/Users/logan/Documents/web2py/gluon/dal.py", line 1142, in insert\n    raise e\nOperationalError: near ")": syntax error\n'
p4911
s.